---
triple:          'arm64-apple-darwin'
binary-path:     driver
relocations:
  - { offsetInCU: 0x6825, offset: 0x6825, size: 0x8, addend: 0x0, symName: __ZNSt3__13maxB7v160006IiEERKT_S3_S3_, symObjAddr: 0x204, symBinAddr: 0x100001284, symSize: 0x2C }
  - { offsetInCU: 0x6868, offset: 0x6868, size: 0x8, addend: 0x0, symName: __ZNSt3__14endlB7v160006IcNS_11char_traitsIcEEEERNS_13basic_ostreamIT_T0_EES7_, symObjAddr: 0xA98, symBinAddr: 0x100001B18, symSize: 0x58 }
  - { offsetInCU: 0x68A8, offset: 0x68A8, size: 0x8, addend: 0x0, symName: __ZNSt3__13maxB7v160006IiNS_6__lessIiiEEEERKT_S5_S5_T0_, symObjAddr: 0xD54, symBinAddr: 0x100001DD4, symSize: 0x54 }
  - { offsetInCU: 0x693D, offset: 0x693D, size: 0x8, addend: 0x0, symName: __ZNSt3__19use_facetB7v160006INS_5ctypeIcEEEERKT_RKNS_6localeE, symObjAddr: 0xE60, symBinAddr: 0x100001EE0, symSize: 0x2C }
  - { offsetInCU: 0x9F31, offset: 0x9F31, size: 0x8, addend: 0x0, symName: __ZN7AVLTree8TreeNodeC2Ev, symObjAddr: 0x0, symBinAddr: 0x100001080, symSize: 0x24 }
  - { offsetInCU: 0x9F5B, offset: 0x9F5B, size: 0x8, addend: 0x0, symName: __ZN7AVLTree8TreeNodeC1Ev, symObjAddr: 0x24, symBinAddr: 0x1000010A4, symSize: 0x2C }
  - { offsetInCU: 0x9F85, offset: 0x9F85, size: 0x8, addend: 0x0, symName: __ZN7AVLTree8TreeNodeC2ER5Media, symObjAddr: 0x50, symBinAddr: 0x1000010D0, symSize: 0x2C }
  - { offsetInCU: 0x9FBD, offset: 0x9FBD, size: 0x8, addend: 0x0, symName: __ZN7AVLTree8TreeNodeC1ER5Media, symObjAddr: 0x7C, symBinAddr: 0x1000010FC, symSize: 0x34 }
  - { offsetInCU: 0x9FF5, offset: 0x9FF5, size: 0x8, addend: 0x0, symName: __ZNK7AVLTree8TreeNode9getHeightEv, symObjAddr: 0xB0, symBinAddr: 0x100001130, symSize: 0x50 }
  - { offsetInCU: 0xA029, offset: 0xA029, size: 0x8, addend: 0x0, symName: __ZNK7AVLTree8TreeNode16getBalanceFactorEv, symObjAddr: 0x100, symBinAddr: 0x100001180, symSize: 0x7C }
  - { offsetInCU: 0xA05D, offset: 0xA05D, size: 0x8, addend: 0x0, symName: __ZN7AVLTree8TreeNode9setHeightEi, symObjAddr: 0x17C, symBinAddr: 0x1000011FC, symSize: 0x20 }
  - { offsetInCU: 0xA091, offset: 0xA091, size: 0x8, addend: 0x0, symName: __ZN7AVLTree8TreeNode12UpdateHeightEv, symObjAddr: 0x19C, symBinAddr: 0x10000121C, symSize: 0x68 }
  - { offsetInCU: 0xA0B7, offset: 0xA0B7, size: 0x8, addend: 0x0, symName: __ZN7AVLTreeC2Ev, symObjAddr: 0x230, symBinAddr: 0x1000012B0, symSize: 0x1C }
  - { offsetInCU: 0xA0E1, offset: 0xA0E1, size: 0x8, addend: 0x0, symName: __ZN7AVLTreeC1Ev, symObjAddr: 0x24C, symBinAddr: 0x1000012CC, symSize: 0x2C }
  - { offsetInCU: 0xA10B, offset: 0xA10B, size: 0x8, addend: 0x0, symName: __ZN7AVLTreeD2Ev, symObjAddr: 0x278, symBinAddr: 0x1000012F8, symSize: 0x34 }
  - { offsetInCU: 0xA135, offset: 0xA135, size: 0x8, addend: 0x0, symName: __ZN7AVLTree5ClearEv, symObjAddr: 0x2AC, symBinAddr: 0x10000132C, symSize: 0x4C }
  - { offsetInCU: 0xA15B, offset: 0xA15B, size: 0x8, addend: 0x0, symName: __ZN7AVLTreeD1Ev, symObjAddr: 0x304, symBinAddr: 0x100001384, symSize: 0x2C }
  - { offsetInCU: 0xA185, offset: 0xA185, size: 0x8, addend: 0x0, symName: __ZNK7AVLTree12getRootValueEv, symObjAddr: 0x330, symBinAddr: 0x1000013B0, symSize: 0x50 }
  - { offsetInCU: 0xA1AB, offset: 0xA1AB, size: 0x8, addend: 0x0, symName: __ZNK7AVLTree12getNodeCountEv, symObjAddr: 0x380, symBinAddr: 0x100001400, symSize: 0x18 }
  - { offsetInCU: 0xA1D1, offset: 0xA1D1, size: 0x8, addend: 0x0, symName: __ZN7AVLTree6InsertERP5Media, symObjAddr: 0x398, symBinAddr: 0x100001418, symSize: 0x58 }
  - { offsetInCU: 0xA213, offset: 0xA213, size: 0x8, addend: 0x0, symName: __ZN7AVLTree12InsertHelperERPNS_8TreeNodeERP5Media, symObjAddr: 0x3F0, symBinAddr: 0x100001470, symSize: 0x2AC }
  - { offsetInCU: 0xA29B, offset: 0xA29B, size: 0x8, addend: 0x0, symName: __ZN7AVLTree12MakeRotationEiRPNS_8TreeNodeERP5Media, symObjAddr: 0x69C, symBinAddr: 0x10000171C, symSize: 0x17C }
  - { offsetInCU: 0xA2EB, offset: 0xA2EB, size: 0x8, addend: 0x0, symName: __ZNK7AVLTree8RetrieveERK5MediaRPS0_, symObjAddr: 0x818, symBinAddr: 0x100001898, symSize: 0x80 }
  - { offsetInCU: 0xA32D, offset: 0xA32D, size: 0x8, addend: 0x0, symName: __ZNK7AVLTree14RetrieveHelperEPNS_8TreeNodeERK5MediaRPS2_, symObjAddr: 0x898, symBinAddr: 0x100001918, symSize: 0x114 }
  - { offsetInCU: 0xA37D, offset: 0xA37D, size: 0x8, addend: 0x0, symName: __ZNK7AVLTree13DisplayByLineEv, symObjAddr: 0x9AC, symBinAddr: 0x100001A2C, symSize: 0x3C }
  - { offsetInCU: 0xA3A3, offset: 0xA3A3, size: 0x8, addend: 0x0, symName: __ZNK7AVLTree19DisplayByLineHelperEPNS_8TreeNodeE, symObjAddr: 0x9E8, symBinAddr: 0x100001A68, symSize: 0x84 }
  - { offsetInCU: 0xA3D7, offset: 0xA3D7, size: 0x8, addend: 0x0, symName: __ZNSt3__113basic_ostreamIcNS_11char_traitsIcEEElsB7v160006EPFRS3_S4_E, symObjAddr: 0xA6C, symBinAddr: 0x100001AEC, symSize: 0x2C }
  - { offsetInCU: 0xA409, offset: 0xA409, size: 0x8, addend: 0x0, symName: __ZN7AVLTree11ClearHelperERPNS_8TreeNodeE, symObjAddr: 0xAF0, symBinAddr: 0x100001B70, symSize: 0xE4 }
  - { offsetInCU: 0xA43D, offset: 0xA43D, size: 0x8, addend: 0x0, symName: __ZN7AVLTree16LeftLeftRotationERPNS_8TreeNodeE, symObjAddr: 0xBD4, symBinAddr: 0x100001C54, symSize: 0x7C }
  - { offsetInCU: 0xA47F, offset: 0xA47F, size: 0x8, addend: 0x0, symName: __ZN7AVLTree18RightRightRotationERPNS_8TreeNodeE, symObjAddr: 0xC50, symBinAddr: 0x100001CD0, symSize: 0x7C }
  - { offsetInCU: 0xA4C1, offset: 0xA4C1, size: 0x8, addend: 0x0, symName: __ZN7AVLTree17LeftRightRotationERPNS_8TreeNodeE, symObjAddr: 0xCCC, symBinAddr: 0x100001D4C, symSize: 0x44 }
  - { offsetInCU: 0xA4F5, offset: 0xA4F5, size: 0x8, addend: 0x0, symName: __ZN7AVLTree17RightLeftRotationERPNS_8TreeNodeE, symObjAddr: 0xD10, symBinAddr: 0x100001D90, symSize: 0x44 }
  - { offsetInCU: 0xA538, offset: 0xA538, size: 0x8, addend: 0x0, symName: __ZNKSt3__16__lessIiiEclB7v160006ERKiS3_, symObjAddr: 0xDA8, symBinAddr: 0x100001E28, symSize: 0x34 }
  - { offsetInCU: 0xA578, offset: 0xA578, size: 0x8, addend: 0x0, symName: __ZNKSt3__19basic_iosIcNS_11char_traitsIcEEE5widenB7v160006Ec, symObjAddr: 0xDDC, symBinAddr: 0x100001E5C, symSize: 0x84 }
  - { offsetInCU: 0xA5E4, offset: 0xA5E4, size: 0x8, addend: 0x0, symName: __ZNKSt3__15ctypeIcE5widenB7v160006Ec, symObjAddr: 0xE8C, symBinAddr: 0x100001F0C, symSize: 0x38 }
  - { offsetInCU: 0x50BB, offset: 0xF6FF, size: 0x8, addend: 0x0, symName: __ZNSt3__124__put_character_sequenceB7v160006IcNS_11char_traitsIcEEEERNS_13basic_ostreamIT_T0_EES7_PKS4_m, symObjAddr: 0xE54, symBinAddr: 0x100002D08, symSize: 0x1EC }
  - { offsetInCU: 0x856B, offset: 0x12BAF, size: 0x8, addend: 0x0, symName: __ZNSt3__1lsB7v160006INS_11char_traitsIcEEEERNS_13basic_ostreamIcT_EES6_PKc, symObjAddr: 0x638, symBinAddr: 0x10000257C, symSize: 0x48 }
  - { offsetInCU: 0x85B1, offset: 0x12BF5, size: 0x8, addend: 0x0, symName: __ZNSt3__1plB7v160006IcNS_11char_traitsIcEENS_9allocatorIcEEEENS_12basic_stringIT_T0_T1_EEOS9_SA_, symObjAddr: 0x704, symBinAddr: 0x1000025C4, symSize: 0x40 }
  - { offsetInCU: 0x8609, offset: 0x12C4D, size: 0x8, addend: 0x0, symName: __ZNSt3__1plB7v160006IcNS_11char_traitsIcEENS_9allocatorIcEEEENS_12basic_stringIT_T0_T1_EEOS9_PKS6_, symObjAddr: 0x744, symBinAddr: 0x100002604, symSize: 0x40 }
  - { offsetInCU: 0x8661, offset: 0x12CA5, size: 0x8, addend: 0x0, symName: __ZNSt3__1plB7v160006IcNS_11char_traitsIcEENS_9allocatorIcEEEENS_12basic_stringIT_T0_T1_EES6_OS9_, symObjAddr: 0x784, symBinAddr: 0x100002644, symSize: 0x70 }
  - { offsetInCU: 0x86B9, offset: 0x12CFD, size: 0x8, addend: 0x0, symName: __ZNSt3__1plB7v160006IcNS_11char_traitsIcEENS_9allocatorIcEEEENS_12basic_stringIT_T0_T1_EEPKS6_OS9_, symObjAddr: 0x820, symBinAddr: 0x1000026E0, symSize: 0x44 }
  - { offsetInCU: 0x8711, offset: 0x12D55, size: 0x8, addend: 0x0, symName: __ZNSt3__112__to_addressB7v160006IKcEEPT_S3_, symObjAddr: 0x960, symBinAddr: 0x100002820, symSize: 0x14 }
  - { offsetInCU: 0x877A, offset: 0x12DBE, size: 0x8, addend: 0x0, symName: __ZNSt3__119__debug_db_insert_cB7v160006INS_12basic_stringIcNS_11char_traitsIcEENS_9allocatorIcEEEEEEvPT_, symObjAddr: 0xBCC, symBinAddr: 0x100002A80, symSize: 0x10 }
  - { offsetInCU: 0x87AC, offset: 0x12DF0, size: 0x8, addend: 0x0, symName: __ZNSt3__115__debug_db_swapB7v160006INS_12basic_stringIcNS_11char_traitsIcEENS_9allocatorIcEEEEEEvPT_S8_, symObjAddr: 0xBDC, symBinAddr: 0x100002A90, symSize: 0x14 }
  - { offsetInCU: 0x880B, offset: 0x12E4F, size: 0x8, addend: 0x0, symName: __ZNSt3__116__pad_and_outputB7v160006IcNS_11char_traitsIcEEEENS_19ostreambuf_iteratorIT_T0_EES6_PKS4_S8_S8_RNS_8ios_baseES4_, symObjAddr: 0x1090, symBinAddr: 0x100002F44, symSize: 0x240 }
  - { offsetInCU: 0x88DA, offset: 0x12F1E, size: 0x8, addend: 0x0, symName: __ZNSt3__112__to_addressB7v160006IcEEPT_S2_, symObjAddr: 0x1600, symBinAddr: 0x1000034B4, symSize: 0x14 }
  - { offsetInCU: 0x8910, offset: 0x12F54, size: 0x8, addend: 0x0, symName: __ZNSt3__118__constexpr_strlenB7v160006EPKc, symObjAddr: 0x17F0, symBinAddr: 0x1000035BC, symSize: 0x24 }
  - { offsetInCU: 0xBA70, offset: 0x160B4, size: 0x8, addend: 0x0, symName: __ZN6BorrowC2Ev, symObjAddr: 0x0, symBinAddr: 0x100001F44, symSize: 0x44 }
  - { offsetInCU: 0xBA9A, offset: 0x160DE, size: 0x8, addend: 0x0, symName: __ZN6BorrowC1Ev, symObjAddr: 0x44, symBinAddr: 0x100001F88, symSize: 0x2C }
  - { offsetInCU: 0xBAC4, offset: 0x16108, size: 0x8, addend: 0x0, symName: __ZN6BorrowD2Ev, symObjAddr: 0x70, symBinAddr: 0x100001FB4, symSize: 0x2C }
  - { offsetInCU: 0xBAEE, offset: 0x16132, size: 0x8, addend: 0x0, symName: __ZN6BorrowD1Ev, symObjAddr: 0x9C, symBinAddr: 0x100001FE0, symSize: 0x2C }
  - { offsetInCU: 0xBB18, offset: 0x1615C, size: 0x8, addend: 0x0, symName: __ZN6BorrowD0Ev, symObjAddr: 0xC8, symBinAddr: 0x10000200C, symSize: 0x30 }
  - { offsetInCU: 0xBB43, offset: 0x16187, size: 0x8, addend: 0x0, symName: __ZN6Borrow13ProcessBorrowER15MediaCollectionR18CustomerCollection, symObjAddr: 0xF8, symBinAddr: 0x10000203C, symSize: 0x540 }
  - { offsetInCU: 0xBBE8, offset: 0x1622C, size: 0x8, addend: 0x0, symName: __ZNSt3__112basic_stringIcNS_11char_traitsIcEENS_9allocatorIcEEEpLB7v160006ERKS5_, symObjAddr: 0x7F4, symBinAddr: 0x1000026B4, symSize: 0x2C }
  - { offsetInCU: 0xBC1B, offset: 0x1625F, size: 0x8, addend: 0x0, symName: __ZNSt3__112basic_stringIcNS_11char_traitsIcEENS_9allocatorIcEEE6appendB7v160006ERKS5_, symObjAddr: 0x864, symBinAddr: 0x100002724, symSize: 0x4C }
  - { offsetInCU: 0xBC4E, offset: 0x16292, size: 0x8, addend: 0x0, symName: __ZNSt3__112basic_stringIcNS_11char_traitsIcEENS_9allocatorIcEEEC1B7v160006EOS5_, symObjAddr: 0x8B0, symBinAddr: 0x100002770, symSize: 0x34 }
  - { offsetInCU: 0xBC86, offset: 0x162CA, size: 0x8, addend: 0x0, symName: __ZNKSt3__112basic_stringIcNS_11char_traitsIcEENS_9allocatorIcEEE4dataB7v160006Ev, symObjAddr: 0x8E4, symBinAddr: 0x1000027A4, symSize: 0x28 }
  - { offsetInCU: 0xBCAA, offset: 0x162EE, size: 0x8, addend: 0x0, symName: __ZNKSt3__112basic_stringIcNS_11char_traitsIcEENS_9allocatorIcEEE4sizeB7v160006Ev, symObjAddr: 0x90C, symBinAddr: 0x1000027CC, symSize: 0x54 }
  - { offsetInCU: 0xBCCE, offset: 0x16312, size: 0x8, addend: 0x0, symName: __ZNKSt3__112basic_stringIcNS_11char_traitsIcEENS_9allocatorIcEEE13__get_pointerB7v160006Ev, symObjAddr: 0x974, symBinAddr: 0x100002834, symSize: 0x54 }
  - { offsetInCU: 0xBCF2, offset: 0x16336, size: 0x8, addend: 0x0, symName: __ZNKSt3__112basic_stringIcNS_11char_traitsIcEENS_9allocatorIcEEE9__is_longB7v160006Ev, symObjAddr: 0x9C8, symBinAddr: 0x100002888, symSize: 0x38 }
  - { offsetInCU: 0xBD16, offset: 0x1635A, size: 0x8, addend: 0x0, symName: __ZNKSt3__112basic_stringIcNS_11char_traitsIcEENS_9allocatorIcEEE18__get_long_pointerB7v160006Ev, symObjAddr: 0xA00, symBinAddr: 0x1000028C0, symSize: 0x28 }
  - { offsetInCU: 0xBD3A, offset: 0x1637E, size: 0x8, addend: 0x0, symName: __ZNKSt3__112basic_stringIcNS_11char_traitsIcEENS_9allocatorIcEEE19__get_short_pointerB7v160006Ev, symObjAddr: 0xA28, symBinAddr: 0x1000028E8, symSize: 0x28 }
  - { offsetInCU: 0xBD5E, offset: 0x163A2, size: 0x8, addend: 0x0, symName: __ZNKSt3__117__compressed_pairINS_12basic_stringIcNS_11char_traitsIcEENS_9allocatorIcEEE5__repES5_E5firstB7v160006Ev, symObjAddr: 0xA50, symBinAddr: 0x100002910, symSize: 0x24 }
  - { offsetInCU: 0xBD82, offset: 0x163C6, size: 0x8, addend: 0x0, symName: __ZNKSt3__122__compressed_pair_elemINS_12basic_stringIcNS_11char_traitsIcEENS_9allocatorIcEEE5__repELi0ELb0EE5__getB7v160006Ev, symObjAddr: 0xA74, symBinAddr: 0x100002934, symSize: 0x14 }
  - { offsetInCU: 0xBDA6, offset: 0x163EA, size: 0x8, addend: 0x0, symName: __ZNSt3__114pointer_traitsIPKcE10pointer_toB7v160006ERS1_, symObjAddr: 0xA88, symBinAddr: 0x100002948, symSize: 0x14 }
  - { offsetInCU: 0xBDC9, offset: 0x1640D, size: 0x8, addend: 0x0, symName: __ZNKSt3__112basic_stringIcNS_11char_traitsIcEENS_9allocatorIcEEE15__get_long_sizeB7v160006Ev, symObjAddr: 0xA9C, symBinAddr: 0x10000295C, symSize: 0x28 }
  - { offsetInCU: 0xBDED, offset: 0x16431, size: 0x8, addend: 0x0, symName: __ZNKSt3__112basic_stringIcNS_11char_traitsIcEENS_9allocatorIcEEE16__get_short_sizeB7v160006Ev, symObjAddr: 0xAC4, symBinAddr: 0x100002984, symSize: 0x34 }
  - { offsetInCU: 0xBE11, offset: 0x16455, size: 0x8, addend: 0x0, symName: __ZNSt3__112basic_stringIcNS_11char_traitsIcEENS_9allocatorIcEEEC2B7v160006EOS5_, symObjAddr: 0xAF8, symBinAddr: 0x1000029B8, symSize: 0x88 }
  - { offsetInCU: 0xBE49, offset: 0x1648D, size: 0x8, addend: 0x0, symName: __ZNSt3__112basic_stringIcNS_11char_traitsIcEENS_9allocatorIcEEE14__default_initB7v160006Ev, symObjAddr: 0xB80, symBinAddr: 0x100002A40, symSize: 0x40 }
  - { offsetInCU: 0xBE6D, offset: 0x164B1, size: 0x8, addend: 0x0, symName: __ZNSt3__117__compressed_pairINS_12basic_stringIcNS_11char_traitsIcEENS_9allocatorIcEEE5__repES5_E5firstB7v160006Ev, symObjAddr: 0xBF0, symBinAddr: 0x100002AA4, symSize: 0x24 }
  - { offsetInCU: 0xBE91, offset: 0x164D5, size: 0x8, addend: 0x0, symName: __ZNSt3__122__compressed_pair_elemINS_12basic_stringIcNS_11char_traitsIcEENS_9allocatorIcEEE5__repELi0ELb0EE5__getB7v160006Ev, symObjAddr: 0xC14, symBinAddr: 0x100002AC8, symSize: 0x14 }
  - { offsetInCU: 0xBEB5, offset: 0x164F9, size: 0x8, addend: 0x0, symName: __ZNSt3__112basic_stringIcNS_11char_traitsIcEENS_9allocatorIcEEE5beginB7v160006Ev, symObjAddr: 0xC28, symBinAddr: 0x100002ADC, symSize: 0x4C }
  - { offsetInCU: 0xBEE3, offset: 0x16527, size: 0x8, addend: 0x0, symName: __ZNSt3__111__wrap_iterIPKcEC1B7v160006IPcEERKNS0_IT_EEPNS_9enable_ifIXsr14is_convertibleIS6_S2_EE5valueEvE4typeE, symObjAddr: 0xC74, symBinAddr: 0x100002B28, symSize: 0x3C }
  - { offsetInCU: 0xBF2E, offset: 0x16572, size: 0x8, addend: 0x0, symName: __ZNSt3__112basic_stringIcNS_11char_traitsIcEENS_9allocatorIcEEE15__make_iteratorB7v160006EPc, symObjAddr: 0xCB0, symBinAddr: 0x100002B64, symSize: 0x34 }
  - { offsetInCU: 0xBF61, offset: 0x165A5, size: 0x8, addend: 0x0, symName: __ZNSt3__112basic_stringIcNS_11char_traitsIcEENS_9allocatorIcEEE13__get_pointerB7v160006Ev, symObjAddr: 0xCE4, symBinAddr: 0x100002B98, symSize: 0x54 }
  - { offsetInCU: 0xBF85, offset: 0x165C9, size: 0x8, addend: 0x0, symName: __ZNSt3__111__wrap_iterIPcEC1B7v160006EPKvS1_, symObjAddr: 0xD38, symBinAddr: 0x100002BEC, symSize: 0x3C }
  - { offsetInCU: 0xBFCA, offset: 0x1660E, size: 0x8, addend: 0x0, symName: __ZNSt3__111__wrap_iterIPcEC2B7v160006EPKvS1_, symObjAddr: 0xD74, symBinAddr: 0x100002C28, symSize: 0x24 }
  - { offsetInCU: 0xC00F, offset: 0x16653, size: 0x8, addend: 0x0, symName: __ZNSt3__112basic_stringIcNS_11char_traitsIcEENS_9allocatorIcEEE18__get_long_pointerB7v160006Ev, symObjAddr: 0xD98, symBinAddr: 0x100002C4C, symSize: 0x28 }
  - { offsetInCU: 0xC033, offset: 0x16677, size: 0x8, addend: 0x0, symName: __ZNSt3__112basic_stringIcNS_11char_traitsIcEENS_9allocatorIcEEE19__get_short_pointerB7v160006Ev, symObjAddr: 0xDC0, symBinAddr: 0x100002C74, symSize: 0x28 }
  - { offsetInCU: 0xC057, offset: 0x1669B, size: 0x8, addend: 0x0, symName: __ZNSt3__114pointer_traitsIPcE10pointer_toB7v160006ERc, symObjAddr: 0xDE8, symBinAddr: 0x100002C9C, symSize: 0x14 }
  - { offsetInCU: 0xC07A, offset: 0x166BE, size: 0x8, addend: 0x0, symName: __ZNSt3__111__wrap_iterIPKcEC2B7v160006IPcEERKNS0_IT_EEPNS_9enable_ifIXsr14is_convertibleIS6_S2_EE5valueEvE4typeE, symObjAddr: 0xDFC, symBinAddr: 0x100002CB0, symSize: 0x40 }
  - { offsetInCU: 0xC0C5, offset: 0x16709, size: 0x8, addend: 0x0, symName: __ZNKSt3__111__wrap_iterIPcE4baseB7v160006Ev, symObjAddr: 0xE3C, symBinAddr: 0x100002CF0, symSize: 0x18 }
  - { offsetInCU: 0xC0E9, offset: 0x1672D, size: 0x8, addend: 0x0, symName: __ZNSt3__111char_traitsIcE6lengthEPKc, symObjAddr: 0x1040, symBinAddr: 0x100002EF4, symSize: 0x34 }
  - { offsetInCU: 0xC125, offset: 0x16769, size: 0x8, addend: 0x0, symName: __ZNKSt3__113basic_ostreamIcNS_11char_traitsIcEEE6sentrycvbB7v160006Ev, symObjAddr: 0x1074, symBinAddr: 0x100002F28, symSize: 0x1C }
  - { offsetInCU: 0xC149, offset: 0x1678D, size: 0x8, addend: 0x0, symName: __ZNSt3__119ostreambuf_iteratorIcNS_11char_traitsIcEEEC1B7v160006ERNS_13basic_ostreamIcS2_EE, symObjAddr: 0x12D0, symBinAddr: 0x100003184, symSize: 0x34 }
  - { offsetInCU: 0xC180, offset: 0x167C4, size: 0x8, addend: 0x0, symName: __ZNKSt3__18ios_base5flagsB7v160006Ev, symObjAddr: 0x1304, symBinAddr: 0x1000031B8, symSize: 0x18 }
  - { offsetInCU: 0xC1A7, offset: 0x167EB, size: 0x8, addend: 0x0, symName: __ZNKSt3__19basic_iosIcNS_11char_traitsIcEEE4fillB7v160006Ev, symObjAddr: 0x131C, symBinAddr: 0x1000031D0, symSize: 0x64 }
  - { offsetInCU: 0xC1CD, offset: 0x16811, size: 0x8, addend: 0x0, symName: __ZNKSt3__119ostreambuf_iteratorIcNS_11char_traitsIcEEE6failedB7v160006Ev, symObjAddr: 0x1380, symBinAddr: 0x100003234, symSize: 0x24 }
  - { offsetInCU: 0xC1F1, offset: 0x16835, size: 0x8, addend: 0x0, symName: __ZNSt3__19basic_iosIcNS_11char_traitsIcEEE8setstateB7v160006Ej, symObjAddr: 0x13A4, symBinAddr: 0x100003258, symSize: 0x2C }
  - { offsetInCU: 0xC224, offset: 0x16868, size: 0x8, addend: 0x0, symName: __ZNKSt3__18ios_base5widthB7v160006Ev, symObjAddr: 0x13D0, symBinAddr: 0x100003284, symSize: 0x18 }
  - { offsetInCU: 0xC24B, offset: 0x1688F, size: 0x8, addend: 0x0, symName: __ZNSt3__115basic_streambufIcNS_11char_traitsIcEEE5sputnB7v160006EPKcl, symObjAddr: 0x13E8, symBinAddr: 0x10000329C, symSize: 0x3C }
  - { offsetInCU: 0xC28B, offset: 0x168CF, size: 0x8, addend: 0x0, symName: __ZNSt3__112basic_stringIcNS_11char_traitsIcEENS_9allocatorIcEEEC1B7v160006Emc, symObjAddr: 0x1424, symBinAddr: 0x1000032D8, symSize: 0x3C }
  - { offsetInCU: 0xC2D2, offset: 0x16916, size: 0x8, addend: 0x0, symName: __ZNSt3__112basic_stringIcNS_11char_traitsIcEENS_9allocatorIcEEE4dataB7v160006Ev, symObjAddr: 0x1460, symBinAddr: 0x100003314, symSize: 0x28 }
  - { offsetInCU: 0xC2F6, offset: 0x1693A, size: 0x8, addend: 0x0, symName: __ZNSt3__18ios_base5widthB7v160006El, symObjAddr: 0x1488, symBinAddr: 0x10000333C, symSize: 0x2C }
  - { offsetInCU: 0xC33B, offset: 0x1697F, size: 0x8, addend: 0x0, symName: __ZNSt3__112basic_stringIcNS_11char_traitsIcEENS_9allocatorIcEEEC2B7v160006Emc, symObjAddr: 0x14B4, symBinAddr: 0x100003368, symSize: 0x54 }
  - { offsetInCU: 0xC387, offset: 0x169CB, size: 0x8, addend: 0x0, symName: __ZNSt3__117__compressed_pairINS_12basic_stringIcNS_11char_traitsIcEENS_9allocatorIcEEE5__repES5_EC1B7v160006INS_18__default_init_tagESA_EEOT_OT0_, symObjAddr: 0x1508, symBinAddr: 0x1000033BC, symSize: 0x3C }
  - { offsetInCU: 0xC3DE, offset: 0x16A22, size: 0x8, addend: 0x0, symName: __ZNSt3__117__compressed_pairINS_12basic_stringIcNS_11char_traitsIcEENS_9allocatorIcEEE5__repES5_EC2B7v160006INS_18__default_init_tagESA_EEOT_OT0_, symObjAddr: 0x1544, symBinAddr: 0x1000033F8, symSize: 0x3C }
  - { offsetInCU: 0xC435, offset: 0x16A79, size: 0x8, addend: 0x0, symName: __ZNSt3__122__compressed_pair_elemINS_12basic_stringIcNS_11char_traitsIcEENS_9allocatorIcEEE5__repELi0ELb0EEC2B7v160006ENS_18__default_init_tagE, symObjAddr: 0x1580, symBinAddr: 0x100003434, symSize: 0x14 }
  - { offsetInCU: 0xC469, offset: 0x16AAD, size: 0x8, addend: 0x0, symName: __ZNSt3__122__compressed_pair_elemINS_9allocatorIcEELi1ELb1EEC2B7v160006ENS_18__default_init_tagE, symObjAddr: 0x1594, symBinAddr: 0x100003448, symSize: 0x2C }
  - { offsetInCU: 0xC49D, offset: 0x16AE1, size: 0x8, addend: 0x0, symName: __ZNSt3__19allocatorIcEC2B7v160006Ev, symObjAddr: 0x15C0, symBinAddr: 0x100003474, symSize: 0x2C }
  - { offsetInCU: 0xC4C6, offset: 0x16B0A, size: 0x8, addend: 0x0, symName: __ZNSt3__116__non_trivial_ifILb1ENS_9allocatorIcEEEC2B7v160006Ev, symObjAddr: 0x15EC, symBinAddr: 0x1000034A0, symSize: 0x14 }
  - { offsetInCU: 0xC4EF, offset: 0x16B33, size: 0x8, addend: 0x0, symName: __ZNSt3__119ostreambuf_iteratorIcNS_11char_traitsIcEEEC2B7v160006ERNS_13basic_ostreamIcS2_EE, symObjAddr: 0x1614, symBinAddr: 0x1000034C8, symSize: 0x54 }
  - { offsetInCU: 0xC526, offset: 0x16B6A, size: 0x8, addend: 0x0, symName: __ZNKSt3__19basic_iosIcNS_11char_traitsIcEEE5rdbufB7v160006Ev, symObjAddr: 0x1668, symBinAddr: 0x10000351C, symSize: 0x24 }
  - { offsetInCU: 0xC54C, offset: 0x16B90, size: 0x8, addend: 0x0, symName: __ZNKSt3__18ios_base5rdbufB7v160006Ev, symObjAddr: 0x168C, symBinAddr: 0x100003540, symSize: 0x18 }
  - { offsetInCU: 0xC570, offset: 0x16BB4, size: 0x8, addend: 0x0, symName: __ZNSt3__111char_traitsIcE11eq_int_typeEii, symObjAddr: 0x16A4, symBinAddr: 0x100003558, symSize: 0x28 }
  - { offsetInCU: 0xC5A1, offset: 0x16BE5, size: 0x8, addend: 0x0, symName: __ZNSt3__111char_traitsIcE3eofEv, symObjAddr: 0x16CC, symBinAddr: 0x100003580, symSize: 0x8 }
  - { offsetInCU: 0xC5B5, offset: 0x16BF9, size: 0x8, addend: 0x0, symName: __ZNSt3__18ios_base8setstateB7v160006Ej, symObjAddr: 0x17BC, symBinAddr: 0x100003588, symSize: 0x34 }
  - { offsetInCU: 0x4B02, offset: 0x1B77F, size: 0x8, addend: 0x0, symName: __ZNSt3__1rsB7v160006IcNS_11char_traitsIcEEEERNS_13basic_istreamIT_T0_EES7_RS4_, symObjAddr: 0x528, symBinAddr: 0x100003B00, symSize: 0x190 }
  - { offsetInCU: 0x4B84, offset: 0x1B801, size: 0x8, addend: 0x0, symName: __ZNSt3__17getlineB7v160006IcNS_11char_traitsIcEENS_9allocatorIcEEEERNS_13basic_istreamIT_T0_EES9_RNS_12basic_stringIS6_S7_T1_EES6_, symObjAddr: 0xF28, symBinAddr: 0x100004500, symSize: 0x234 }
  - { offsetInCU: 0x4C42, offset: 0x1B8BF, size: 0x8, addend: 0x0, symName: __ZNSt3__1lsB7v160006INS_11char_traitsIcEEEERNS_13basic_ostreamIcT_EES6_c, symObjAddr: 0x12C4, symBinAddr: 0x100004734, symSize: 0x34 }
  - { offsetInCU: 0x4C88, offset: 0x1B905, size: 0x8, addend: 0x0, symName: __ZNSt3__125__debug_db_invalidate_allB7v160006INS_12basic_stringIcNS_11char_traitsIcEENS_9allocatorIcEEEEEEvPT_, symObjAddr: 0x1E14, symBinAddr: 0x100004A84, symSize: 0x10 }
  - { offsetInCU: 0x6FC3, offset: 0x1DC40, size: 0x8, addend: 0x0, symName: __ZN12BorrowReturnC2Ev, symObjAddr: 0x0, symBinAddr: 0x1000035E0, symSize: 0x4C }
  - { offsetInCU: 0x6FED, offset: 0x1DC6A, size: 0x8, addend: 0x0, symName: __ZN12BorrowReturnC1Ev, symObjAddr: 0x4C, symBinAddr: 0x10000362C, symSize: 0x2C }
  - { offsetInCU: 0x7017, offset: 0x1DC94, size: 0x8, addend: 0x0, symName: __ZN12BorrowReturnD2Ev, symObjAddr: 0x78, symBinAddr: 0x100003658, symSize: 0x98 }
  - { offsetInCU: 0x7041, offset: 0x1DCBE, size: 0x8, addend: 0x0, symName: __ZN12BorrowReturnD1Ev, symObjAddr: 0x110, symBinAddr: 0x1000036F0, symSize: 0x2C }
  - { offsetInCU: 0x706B, offset: 0x1DCE8, size: 0x8, addend: 0x0, symName: __ZN12BorrowReturnD0Ev, symObjAddr: 0x13C, symBinAddr: 0x10000371C, symSize: 0x30 }
  - { offsetInCU: 0x7095, offset: 0x1DD12, size: 0x8, addend: 0x0, symName: __ZN12BorrowReturn7setDataERNSt3__118basic_stringstreamIcNS0_11char_traitsIcEENS0_9allocatorIcEEEE, symObjAddr: 0x16C, symBinAddr: 0x10000374C, symSize: 0x258 }
  - { offsetInCU: 0x70F3, offset: 0x1DD70, size: 0x8, addend: 0x0, symName: __ZNSt3__112basic_stringIcNS_11char_traitsIcEENS_9allocatorIcEEEpLB7v160006EPKc, symObjAddr: 0x3C4, symBinAddr: 0x1000039A4, symSize: 0x2C }
  - { offsetInCU: 0x7126, offset: 0x1DDA3, size: 0x8, addend: 0x0, symName: __ZN12BorrowReturn14ProcessInvalidERNSt3__118basic_stringstreamIcNS0_11char_traitsIcEENS0_9allocatorIcEEEEi, symObjAddr: 0x3F0, symBinAddr: 0x1000039D0, symSize: 0x130 }
  - { offsetInCU: 0x7168, offset: 0x1DDE5, size: 0x8, addend: 0x0, symName: __ZN12BorrowReturn13ProcessComedyERNSt3__118basic_stringstreamIcNS0_11char_traitsIcEENS0_9allocatorIcEEEERP5Media, symObjAddr: 0x6B8, symBinAddr: 0x100003C90, symSize: 0x2B8 }
  - { offsetInCU: 0x71C8, offset: 0x1DE45, size: 0x8, addend: 0x0, symName: __ZN12BorrowReturn12ProcessDramaERNSt3__118basic_stringstreamIcNS0_11char_traitsIcEENS0_9allocatorIcEEEERP5Media, symObjAddr: 0x970, symBinAddr: 0x100003F48, symSize: 0x324 }
  - { offsetInCU: 0x7228, offset: 0x1DEA5, size: 0x8, addend: 0x0, symName: __ZN12BorrowReturn14ProcessClassicERNSt3__118basic_stringstreamIcNS0_11char_traitsIcEENS0_9allocatorIcEEEERP5Media, symObjAddr: 0xC94, symBinAddr: 0x10000426C, symSize: 0x260 }
  - { offsetInCU: 0x729A, offset: 0x1DF17, size: 0x8, addend: 0x0, symName: __ZNSt3__112basic_stringIcNS_11char_traitsIcEENS_9allocatorIcEEEC1B7v160006IDnEEPKc, symObjAddr: 0xEF4, symBinAddr: 0x1000044CC, symSize: 0x34 }
  - { offsetInCU: 0x72D8, offset: 0x1DF55, size: 0x8, addend: 0x0, symName: __ZNSt3__112basic_stringIcNS_11char_traitsIcEENS_9allocatorIcEEEC2B7v160006IDnEEPKc, symObjAddr: 0x12F8, symBinAddr: 0x100004768, symSize: 0x60 }
  - { offsetInCU: 0x7334, offset: 0x1DFB1, size: 0x8, addend: 0x0, symName: __ZNKSt3__113basic_istreamIcNS_11char_traitsIcEEE6sentrycvbB7v160006Ev, symObjAddr: 0x1A94, symBinAddr: 0x1000047C8, symSize: 0x1C }
  - { offsetInCU: 0x7358, offset: 0x1DFD5, size: 0x8, addend: 0x0, symName: __ZNSt3__115basic_streambufIcNS_11char_traitsIcEEE6sbumpcB7v160006Ev, symObjAddr: 0x1AD4, symBinAddr: 0x1000047E4, symSize: 0x78 }
  - { offsetInCU: 0x737C, offset: 0x1DFF9, size: 0x8, addend: 0x0, symName: __ZNSt3__111char_traitsIcE12to_char_typeEi, symObjAddr: 0x1B74, symBinAddr: 0x10000485C, symSize: 0x18 }
  - { offsetInCU: 0x739F, offset: 0x1E01C, size: 0x8, addend: 0x0, symName: __ZNSt3__18ios_base18__setstate_nothrowB7v160006Ej, symObjAddr: 0x1B8C, symBinAddr: 0x100004874, symSize: 0x64 }
  - { offsetInCU: 0x73D2, offset: 0x1E04F, size: 0x8, addend: 0x0, symName: __ZNKSt3__19basic_iosIcNS_11char_traitsIcEEE10exceptionsB7v160006Ev, symObjAddr: 0x1BF0, symBinAddr: 0x1000048D8, symSize: 0x24 }
  - { offsetInCU: 0x73F6, offset: 0x1E073, size: 0x8, addend: 0x0, symName: __ZNSt3__111char_traitsIcE11to_int_typeEc, symObjAddr: 0x1C58, symBinAddr: 0x1000048FC, symSize: 0x14 }
  - { offsetInCU: 0x7419, offset: 0x1E096, size: 0x8, addend: 0x0, symName: __ZNKSt3__18ios_base10exceptionsB7v160006Ev, symObjAddr: 0x1C6C, symBinAddr: 0x100004910, symSize: 0x18 }
  - { offsetInCU: 0x7440, offset: 0x1E0BD, size: 0x8, addend: 0x0, symName: __ZNSt3__112basic_stringIcNS_11char_traitsIcEENS_9allocatorIcEEE5clearB7v160006Ev, symObjAddr: 0x1CB8, symBinAddr: 0x100004928, symSize: 0x88 }
  - { offsetInCU: 0x7466, offset: 0x1E0E3, size: 0x8, addend: 0x0, symName: __ZNSt3__111char_traitsIcE2eqEcc, symObjAddr: 0x1D40, symBinAddr: 0x1000049B0, symSize: 0x28 }
  - { offsetInCU: 0x7497, offset: 0x1E114, size: 0x8, addend: 0x0, symName: __ZNKSt3__112basic_stringIcNS_11char_traitsIcEENS_9allocatorIcEEE8max_sizeB7v160006Ev, symObjAddr: 0x1D68, symBinAddr: 0x1000049D8, symSize: 0xAC }
  - { offsetInCU: 0x74E7, offset: 0x1E164, size: 0x8, addend: 0x0, symName: __ZNSt3__111char_traitsIcE6assignERcRKc, symObjAddr: 0x1E24, symBinAddr: 0x100004A94, symSize: 0x24 }
  - { offsetInCU: 0x7518, offset: 0x1E195, size: 0x8, addend: 0x0, symName: __ZNSt3__112basic_stringIcNS_11char_traitsIcEENS_9allocatorIcEEE15__set_long_sizeB7v160006Em, symObjAddr: 0x1E48, symBinAddr: 0x100004AB8, symSize: 0x38 }
  - { offsetInCU: 0x754B, offset: 0x1E1C8, size: 0x8, addend: 0x0, symName: __ZNSt3__112basic_stringIcNS_11char_traitsIcEENS_9allocatorIcEEE16__set_short_sizeB7v160006Em, symObjAddr: 0x1E80, symBinAddr: 0x100004AF0, symSize: 0x78 }
  - { offsetInCU: 0x7588, offset: 0x1E205, size: 0x8, addend: 0x0, symName: __ZNSt3__116allocator_traitsINS_9allocatorIcEEE8max_sizeB7v160006IS2_vvEEmRKS2_, symObjAddr: 0x1EF8, symBinAddr: 0x100004B68, symSize: 0x28 }
  - { offsetInCU: 0x75B6, offset: 0x1E233, size: 0x8, addend: 0x0, symName: __ZNKSt3__112basic_stringIcNS_11char_traitsIcEENS_9allocatorIcEEE7__allocB7v160006Ev, symObjAddr: 0x1F20, symBinAddr: 0x100004B90, symSize: 0x24 }
  - { offsetInCU: 0x75DA, offset: 0x1E257, size: 0x8, addend: 0x0, symName: __ZNSt3__114numeric_limitsImE3maxB7v160006Ev, symObjAddr: 0x1F44, symBinAddr: 0x100004BB4, symSize: 0x14 }
  - { offsetInCU: 0x75EE, offset: 0x1E26B, size: 0x8, addend: 0x0, symName: __ZNKSt3__117__compressed_pairINS_12basic_stringIcNS_11char_traitsIcEENS_9allocatorIcEEE5__repES5_E6secondB7v160006Ev, symObjAddr: 0x1F58, symBinAddr: 0x100004BC8, symSize: 0x24 }
  - { offsetInCU: 0x7612, offset: 0x1E28F, size: 0x8, addend: 0x0, symName: __ZNKSt3__122__compressed_pair_elemINS_9allocatorIcEELi1ELb1EE5__getB7v160006Ev, symObjAddr: 0x1F7C, symBinAddr: 0x100004BEC, symSize: 0x14 }
  - { offsetInCU: 0x7636, offset: 0x1E2B3, size: 0x8, addend: 0x0, symName: __ZNSt3__123__libcpp_numeric_limitsImLb1EE3maxB7v160006Ev, symObjAddr: 0x1F90, symBinAddr: 0x100004C00, symSize: 0x8 }
  - { offsetInCU: 0x6DD7, offset: 0x250D9, size: 0x8, addend: 0x0, symName: __ZNSt3__16copy_nB7v160006IPKcmPcEENS_9enable_ifIXsr33__is_cpp17_random_access_iteratorIT_EE5valueET1_E4typeES5_T0_S6_, symObjAddr: 0x3CD4, symBinAddr: 0x100007F68, symSize: 0x44 }
  - { offsetInCU: 0x7B99, offset: 0x25E9B, size: 0x8, addend: 0x0, symName: __ZNSt3__1lsB7v160006IcNS_11char_traitsIcEEEERNS_13basic_ostreamIT_T0_EES7_RKNS_8__iom_t6E, symObjAddr: 0x86C, symBinAddr: 0x1000053A8, symSize: 0x40 }
  - { offsetInCU: 0x7BE8, offset: 0x25EEA, size: 0x8, addend: 0x0, symName: __ZNSt3__14leftB7v160006ERNS_8ios_baseE, symObjAddr: 0x8EC, symBinAddr: 0x100005428, symSize: 0x30 }
  - { offsetInCU: 0x7C16, offset: 0x25F18, size: 0x8, addend: 0x0, symName: __ZNSt3__14setwB7v160006Ei, symObjAddr: 0x91C, symBinAddr: 0x100005458, symSize: 0x2C }
  - { offsetInCU: 0x7C44, offset: 0x25F46, size: 0x8, addend: 0x0, symName: __ZNSt3__1neB7v160006ERKNS_14__map_iteratorINS_15__tree_iteratorINS_12__value_typeINS_12basic_stringIcNS_11char_traitsIcEENS_9allocatorIcEEEEiEEPNS_11__tree_nodeIS9_PvEElEEEESH_, symObjAddr: 0xBC0, symBinAddr: 0x1000056FC, symSize: 0x30 }
  - { offsetInCU: 0x7C81, offset: 0x25F83, size: 0x8, addend: 0x0, symName: __ZNSt3__1ltB7v160006ENS_15strong_orderingENS_20_CmpUnspecifiedParamE, symObjAddr: 0x107C, symBinAddr: 0x100005BB8, symSize: 0x24 }
  - { offsetInCU: 0x7CBC, offset: 0x25FBE, size: 0x8, addend: 0x0, symName: __ZNSt3__1ssB7v160006IcNS_11char_traitsIcEENS_9allocatorIcEEEEDaRKNS_12basic_stringIT_T0_T1_EESC_, symObjAddr: 0x10A0, symBinAddr: 0x100005BDC, symSize: 0x5C }
  - { offsetInCU: 0x7D30, offset: 0x26032, size: 0x8, addend: 0x0, symName: __ZNSt3__1eqB7v160006IcNS_11char_traitsIcEENS_9allocatorIcEEEEbRKNS_12basic_stringIT_T0_T1_EEPKS6_, symObjAddr: 0x16BC, symBinAddr: 0x1000061F8, symSize: 0x5C }
  - { offsetInCU: 0x7D88, offset: 0x2608A, size: 0x8, addend: 0x0, symName: __ZNSt3__1eqB7v160006INS_9allocatorIcEEEEbRKNS_12basic_stringIcNS_11char_traitsIcEET_EES9_, symObjAddr: 0x1810, symBinAddr: 0x10000634C, symSize: 0x148 }
  - { offsetInCU: 0x7DFB, offset: 0x260FD, size: 0x8, addend: 0x0, symName: __ZNSt3__1neB7v160006ERKNS_20__map_const_iteratorINS_21__tree_const_iteratorINS_12__value_typeINS_12basic_stringIcNS_11char_traitsIcEENS_9allocatorIcEEEEiEEPNS_11__tree_nodeIS9_PvEElEEEESH_, symObjAddr: 0x1990, symBinAddr: 0x1000064CC, symSize: 0x30 }
  - { offsetInCU: 0x7F14, offset: 0x26216, size: 0x8, addend: 0x0, symName: __ZNSt3__1rsB7v160006IcNS_11char_traitsIcEENS_9allocatorIcEEEERNS_13basic_istreamIT_T0_EES9_RNS_12basic_stringIS6_S7_T1_EE, symObjAddr: 0x1AA8, symBinAddr: 0x1000065B0, symSize: 0x30C }
  - { offsetInCU: 0x7FE1, offset: 0x262E3, size: 0x8, addend: 0x0, symName: __ZNSt3__1plB7v160006IcNS_11char_traitsIcEENS_9allocatorIcEEEENS_12basic_stringIT_T0_T1_EEOS9_RKS9_, symObjAddr: 0x1DBC, symBinAddr: 0x1000068BC, symSize: 0x40 }
  - { offsetInCU: 0x8039, offset: 0x2633B, size: 0x8, addend: 0x0, symName: __ZNSt3__1plB7v160006IcNS_11char_traitsIcEENS_9allocatorIcEEEENS_12basic_stringIT_T0_T1_EERKS9_S6_, symObjAddr: 0x1DFC, symBinAddr: 0x1000068FC, symSize: 0x110 }
  - { offsetInCU: 0x80CB, offset: 0x263CD, size: 0x8, addend: 0x0, symName: __ZNSt3__1lsB7v160006IcNS_11char_traitsIcEENS_9allocatorIcEEEERNS_13basic_ostreamIT_T0_EES9_RKNS_12basic_stringIS6_S7_T1_EE, symObjAddr: 0x250C, symBinAddr: 0x10000700C, symSize: 0x4C }
  - { offsetInCU: 0x8123, offset: 0x26425, size: 0x8, addend: 0x0, symName: __ZNSt3__1lsB7v160006INS_11char_traitsIcEEEERNS_13basic_ostreamIcT_EES6_RKNS_8__iom_t4IcEE, symObjAddr: 0x25E4, symBinAddr: 0x1000070B0, symSize: 0x40 }
  - { offsetInCU: 0x8166, offset: 0x26468, size: 0x8, addend: 0x0, symName: __ZNSt3__17setfillB7v160006IcEENS_8__iom_t4IT_EES2_, symObjAddr: 0x2624, symBinAddr: 0x1000070F0, symSize: 0x2C }
  - { offsetInCU: 0x819B, offset: 0x2649D, size: 0x8, addend: 0x0, symName: __ZNSt3__1ssB7v160006IcNS_11char_traitsIcEEEEDaNS_17basic_string_viewIT_T0_EES7_, symObjAddr: 0x2798, symBinAddr: 0x100007264, symSize: 0x7C }
  - { offsetInCU: 0x81EA, offset: 0x264EC, size: 0x8, addend: 0x0, symName: __ZNSt3__13minB7v160006ImEERKT_S3_S3_, symObjAddr: 0x29A0, symBinAddr: 0x10000746C, symSize: 0x2C }
  - { offsetInCU: 0x822D, offset: 0x2652F, size: 0x8, addend: 0x0, symName: __ZNSt3__13minB7v160006ImNS_6__lessImmEEEERKT_S5_S5_T0_, symObjAddr: 0x2A74, symBinAddr: 0x100007534, symSize: 0x54 }
  - { offsetInCU: 0x82C2, offset: 0x265C4, size: 0x8, addend: 0x0, symName: __ZNSt3__118__constexpr_memcmpB7v160006IcEEiPKT_S3_m, symObjAddr: 0x2AFC, symBinAddr: 0x1000075BC, symSize: 0x34 }
  - { offsetInCU: 0x8313, offset: 0x26615, size: 0x8, addend: 0x0, symName: __ZNSt3__1eqB7v160006IcNS_11char_traitsIcEEEEbNS_17basic_string_viewIT_T0_EES6_, symObjAddr: 0x2DE8, symBinAddr: 0x100007694, symSize: 0xB0 }
  - { offsetInCU: 0x8362, offset: 0x26664, size: 0x8, addend: 0x0, symName: __ZNSt3__128__char_traits_length_checkedB7v160006INS_11char_traitsIcEEEEmPKNT_9char_typeE, symObjAddr: 0x2F10, symBinAddr: 0x1000077BC, symSize: 0x24 }
  - { offsetInCU: 0x8397, offset: 0x26699, size: 0x8, addend: 0x0, symName: __ZNSt3__120__throw_length_errorB7v160006EPKc, symObjAddr: 0x39DC, symBinAddr: 0x100007CD4, symSize: 0x64 }
  - { offsetInCU: 0x83C0, offset: 0x266C2, size: 0x8, addend: 0x0, symName: __ZNSt3__117__libcpp_allocateB7v160006Emm, symObjAddr: 0x3B68, symBinAddr: 0x100007E60, symSize: 0x60 }
  - { offsetInCU: 0x841A, offset: 0x2671C, size: 0x8, addend: 0x0, symName: __ZNSt3__124__is_overaligned_for_newB7v160006Em, symObjAddr: 0x3BC8, symBinAddr: 0x100007EC0, symSize: 0x20 }
  - { offsetInCU: 0x8449, offset: 0x2674B, size: 0x8, addend: 0x0, symName: __ZNSt3__121__libcpp_operator_newB7v160006IJmSt11align_val_tEEEPvDpT_, symObjAddr: 0x3BE8, symBinAddr: 0x100007EE0, symSize: 0x2C }
  - { offsetInCU: 0x8499, offset: 0x2679B, size: 0x8, addend: 0x0, symName: __ZNSt3__121__libcpp_operator_newB7v160006IJmEEEPvDpT_, symObjAddr: 0x3C14, symBinAddr: 0x100007F0C, symSize: 0x24 }
  - { offsetInCU: 0x84D4, offset: 0x267D6, size: 0x8, addend: 0x0, symName: __ZNSt3__14copyB7v160006IPKcPcEET0_T_S5_S4_, symObjAddr: 0x3D18, symBinAddr: 0x100007FAC, symSize: 0x40 }
  - { offsetInCU: 0x852E, offset: 0x26830, size: 0x8, addend: 0x0, symName: __ZNSt3__16__copyB7v160006INS_17_ClassicAlgPolicyEPKcS3_PcEENS_4pairIT0_T2_EES6_T1_S7_, symObjAddr: 0x3D58, symBinAddr: 0x100007FEC, symSize: 0x44 }
  - { offsetInCU: 0x859A, offset: 0x2689C, size: 0x8, addend: 0x0, symName: __ZNSt3__123__dispatch_copy_or_moveB7v160006INS_17_ClassicAlgPolicyENS_11__copy_loopIS1_EENS_14__copy_trivialEPKcS6_PcEENS_4pairIT2_T4_EES9_T3_SA_, symObjAddr: 0x3D9C, symBinAddr: 0x100008030, symSize: 0x44 }
  - { offsetInCU: 0x8618, offset: 0x2691A, size: 0x8, addend: 0x0, symName: __ZNSt3__121__unwrap_and_dispatchB7v160006INS_10__overloadINS_11__copy_loopINS_17_ClassicAlgPolicyEEENS_14__copy_trivialEEEPKcS8_PcLi0EEENS_4pairIT0_T2_EESB_T1_SC_, symObjAddr: 0x3DE0, symBinAddr: 0x100008074, symSize: 0xB4 }
  - { offsetInCU: 0x86A7, offset: 0x269A9, size: 0x8, addend: 0x0, symName: __ZNSt3__114__unwrap_rangeB7v160006IPKcS2_EEDaT_T0_, symObjAddr: 0x3E94, symBinAddr: 0x100008128, symSize: 0x3C }
  - { offsetInCU: 0x883F, offset: 0x26B41, size: 0x8, addend: 0x0, symName: __ZNSt3__113__unwrap_iterB7v160006IPcNS_18__unwrap_iter_implIS1_Lb1EEELi0EEEDTclsrT0_8__unwrapclsr3stdE7declvalIT_EEEES5_, symObjAddr: 0x3F18, symBinAddr: 0x1000081AC, symSize: 0x24 }
  - { offsetInCU: 0x8884, offset: 0x26B86, size: 0x8, addend: 0x0, symName: __ZNSt3__19make_pairB7v160006IPKcPcEENS_4pairINS_18__unwrap_ref_decayIT_E4typeENS5_IT0_E4typeEEEOS6_OS9_, symObjAddr: 0x3F3C, symBinAddr: 0x1000081D0, symSize: 0x38 }
  - { offsetInCU: 0x88D3, offset: 0x26BD5, size: 0x8, addend: 0x0, symName: __ZNSt3__114__rewrap_rangeB7v160006IPKcS2_S2_EET0_S3_T1_, symObjAddr: 0x3F74, symBinAddr: 0x100008208, symSize: 0x2C }
  - { offsetInCU: 0x8928, offset: 0x26C2A, size: 0x8, addend: 0x0, symName: __ZNSt3__113__rewrap_iterB7v160006IPcS1_NS_18__unwrap_iter_implIS1_Lb1EEEEET_S4_T0_, symObjAddr: 0x3FA0, symBinAddr: 0x100008234, symSize: 0x3C }
  - { offsetInCU: 0x8A9C, offset: 0x26D9E, size: 0x8, addend: 0x0, symName: __ZNSt3__113__unwrap_iterB7v160006IPKcNS_18__unwrap_iter_implIS2_Lb1EEELi0EEEDTclsrT0_8__unwrapclsr3stdE7declvalIT_EEEES6_, symObjAddr: 0x4034, symBinAddr: 0x1000082C8, symSize: 0x24 }
  - { offsetInCU: 0x8B34, offset: 0x26E36, size: 0x8, addend: 0x0, symName: __ZNSt3__119__copy_trivial_implB7v160006IKccEENS_4pairIPT_PT0_EES4_S4_S6_, symObjAddr: 0x40EC, symBinAddr: 0x100008380, symSize: 0x7C }
  - { offsetInCU: 0x8B9C, offset: 0x26E9E, size: 0x8, addend: 0x0, symName: __ZNSt3__19make_pairB7v160006IRPKcPcEENS_4pairINS_18__unwrap_ref_decayIT_E4typeENS6_IT0_E4typeEEEOS7_OSA_, symObjAddr: 0x4168, symBinAddr: 0x1000083FC, symSize: 0x38 }
  - { offsetInCU: 0x8C3E, offset: 0x26F40, size: 0x8, addend: 0x0, symName: __ZNSt3__113__rewrap_iterB7v160006IPKcS2_NS_18__unwrap_iter_implIS2_Lb1EEEEET_S5_T0_, symObjAddr: 0x42D0, symBinAddr: 0x100008564, symSize: 0x3C }
  - { offsetInCU: 0x8C93, offset: 0x26F95, size: 0x8, addend: 0x0, symName: __ZNSt3__16fill_nB7v160006IPcmcEET_S2_T0_RKT1_, symObjAddr: 0x439C, symBinAddr: 0x100008630, symSize: 0x44 }
  - { offsetInCU: 0x8CF6, offset: 0x26FF8, size: 0x8, addend: 0x0, symName: __ZNSt3__18__fill_nB7v160006IPcmcEET_S2_T0_RKT1_, symObjAddr: 0x43E0, symBinAddr: 0x100008674, symSize: 0x64 }
  - { offsetInCU: 0x8D5A, offset: 0x2705C, size: 0x8, addend: 0x0, symName: __ZNSt3__121__convert_to_integralB7v160006Em, symObjAddr: 0x4444, symBinAddr: 0x1000086D8, symSize: 0x14 }
  - { offsetInCU: 0x8D87, offset: 0x27089, size: 0x8, addend: 0x0, symName: __ZNSt3__119__libcpp_deallocateB7v160006EPvmm, symObjAddr: 0x4614, symBinAddr: 0x100008884, symSize: 0x60 }
  - { offsetInCU: 0x8DED, offset: 0x270EF, size: 0x8, addend: 0x0, symName: __ZNSt3__127__do_deallocate_handle_sizeB7v160006IJSt11align_val_tEEEvPvmDpT_, symObjAddr: 0x4674, symBinAddr: 0x1000088E4, symSize: 0x30 }
  - { offsetInCU: 0x8E43, offset: 0x27145, size: 0x8, addend: 0x0, symName: __ZNSt3__127__do_deallocate_handle_sizeB7v160006IJEEEvPvmDpT_, symObjAddr: 0x46A4, symBinAddr: 0x100008914, symSize: 0x28 }
  - { offsetInCU: 0x8E83, offset: 0x27185, size: 0x8, addend: 0x0, symName: __ZNSt3__124__libcpp_operator_deleteB7v160006IJPvSt11align_val_tEEEvDpT_, symObjAddr: 0x46CC, symBinAddr: 0x10000893C, symSize: 0x2C }
  - { offsetInCU: 0x8ED0, offset: 0x271D2, size: 0x8, addend: 0x0, symName: __ZNSt3__124__libcpp_operator_deleteB7v160006IJPvEEEvDpT_, symObjAddr: 0x46F8, symBinAddr: 0x100008968, symSize: 0x24 }
  - { offsetInCU: 0x8F3B, offset: 0x2723D, size: 0x8, addend: 0x0, symName: __ZNSt3__110destroy_atB7v160006INS_4pairIKNS_12basic_stringIcNS_11char_traitsIcEENS_9allocatorIcEEEEiEELi0EEEvPT_, symObjAddr: 0x4D8C, symBinAddr: 0x100008FFC, symSize: 0x24 }
  - { offsetInCU: 0x8F74, offset: 0x27276, size: 0x8, addend: 0x0, symName: __ZNSt3__112__destroy_atB7v160006INS_4pairIKNS_12basic_stringIcNS_11char_traitsIcEENS_9allocatorIcEEEEiEELi0EEEvPT_, symObjAddr: 0x4DB0, symBinAddr: 0x100009020, symSize: 0x24 }
  - { offsetInCU: 0x8FAD, offset: 0x272AF, size: 0x8, addend: 0x0, symName: __ZNSt3__17launderB7v160006INS_4pairIKNS_12basic_stringIcNS_11char_traitsIcEENS_9allocatorIcEEEEiEEEEPT_SB_, symObjAddr: 0x4DF8, symBinAddr: 0x100009068, symSize: 0x24 }
  - { offsetInCU: 0x8FE4, offset: 0x272E6, size: 0x8, addend: 0x0, symName: __ZNSt3__19__launderB7v160006INS_4pairIKNS_12basic_stringIcNS_11char_traitsIcEENS_9allocatorIcEEEEiEEEEPT_SB_, symObjAddr: 0x4E1C, symBinAddr: 0x10000908C, symSize: 0x14 }
  - { offsetInCU: 0x9082, offset: 0x27384, size: 0x8, addend: 0x0, symName: __ZNSt3__17launderB7v160006IKNS_4pairIKNS_12basic_stringIcNS_11char_traitsIcEENS_9allocatorIcEEEEiEEEEPT_SC_, symObjAddr: 0x5054, symBinAddr: 0x1000092C4, symSize: 0x24 }
  - { offsetInCU: 0x90B9, offset: 0x273BB, size: 0x8, addend: 0x0, symName: __ZNSt3__19__launderB7v160006IKNS_4pairIKNS_12basic_stringIcNS_11char_traitsIcEENS_9allocatorIcEEEEiEEEEPT_SC_, symObjAddr: 0x5078, symBinAddr: 0x1000092E8, symSize: 0x14 }
  - { offsetInCU: 0x915B, offset: 0x2745D, size: 0x8, addend: 0x0, symName: __ZNSt3__112construct_atB7v160006INS_4pairIKNS_12basic_stringIcNS_11char_traitsIcEENS_9allocatorIcEEEEiEEJS9_EPS9_EEPT_SC_DpOT0_, symObjAddr: 0x6334, symBinAddr: 0x100009D50, symSize: 0x3C }
  - { offsetInCU: 0x91D0, offset: 0x274D2, size: 0x8, addend: 0x0, symName: __ZNSt3__127__tree_balance_after_insertB7v160006IPNS_16__tree_node_baseIPvEEEEvT_S5_, symObjAddr: 0x6458, symBinAddr: 0x100009E74, symSize: 0x32C }
  - { offsetInCU: 0x924D, offset: 0x2754F, size: 0x8, addend: 0x0, symName: __ZNSt3__120__tree_is_left_childB7v160006IPNS_16__tree_node_baseIPvEEEEbT_, symObjAddr: 0x67C4, symBinAddr: 0x10000A1E0, symSize: 0x2C }
  - { offsetInCU: 0x9283, offset: 0x27585, size: 0x8, addend: 0x0, symName: __ZNSt3__118__tree_left_rotateB7v160006IPNS_16__tree_node_baseIPvEEEEvT_, symObjAddr: 0x67F0, symBinAddr: 0x10000A20C, symSize: 0xD8 }
  - { offsetInCU: 0x92C6, offset: 0x275C8, size: 0x8, addend: 0x0, symName: __ZNSt3__119__tree_right_rotateB7v160006IPNS_16__tree_node_baseIPvEEEEvT_, symObjAddr: 0x68C8, symBinAddr: 0x10000A2E4, symSize: 0xCC }
  - { offsetInCU: 0x9309, offset: 0x2760B, size: 0x8, addend: 0x0, symName: __ZNSt3__1neB7v160006ERKNS_15__tree_iteratorINS_12__value_typeINS_12basic_stringIcNS_11char_traitsIcEENS_9allocatorIcEEEEiEEPNS_11__tree_nodeIS8_PvEElEESF_, symObjAddr: 0x6DFC, symBinAddr: 0x10000A818, symSize: 0x34 }
  - { offsetInCU: 0x9346, offset: 0x27648, size: 0x8, addend: 0x0, symName: __ZNSt3__1eqB7v160006ERKNS_15__tree_iteratorINS_12__value_typeINS_12basic_stringIcNS_11char_traitsIcEENS_9allocatorIcEEEEiEEPNS_11__tree_nodeIS8_PvEElEESF_, symObjAddr: 0x6EE0, symBinAddr: 0x10000A8FC, symSize: 0x30 }
  - { offsetInCU: 0x9384, offset: 0x27686, size: 0x8, addend: 0x0, symName: __ZNSt3__120__throw_out_of_rangeB7v160006EPKc, symObjAddr: 0x6F28, symBinAddr: 0x10000A944, symSize: 0x64 }
  - { offsetInCU: 0x93AF, offset: 0x276B1, size: 0x8, addend: 0x0, symName: __ZNSt3__1neB7v160006ERKNS_21__tree_const_iteratorINS_12__value_typeINS_12basic_stringIcNS_11char_traitsIcEENS_9allocatorIcEEEEiEEPNS_11__tree_nodeIS8_PvEElEESF_, symObjAddr: 0x7040, symBinAddr: 0x10000AA5C, symSize: 0x34 }
  - { offsetInCU: 0x93EC, offset: 0x276EE, size: 0x8, addend: 0x0, symName: __ZNSt3__1eqB7v160006ERKNS_21__tree_const_iteratorINS_12__value_typeINS_12basic_stringIcNS_11char_traitsIcEENS_9allocatorIcEEEEiEEPNS_11__tree_nodeIS8_PvEElEESF_, symObjAddr: 0x7074, symBinAddr: 0x10000AA90, symSize: 0x30 }
  - { offsetInCU: 0x942A, offset: 0x2772C, size: 0x8, addend: 0x0, symName: __ZNSt3__116__tree_next_iterB7v160006IPNS_15__tree_end_nodeIPNS_16__tree_node_baseIPvEEEES5_EET_T0_, symObjAddr: 0x70DC, symBinAddr: 0x10000AAF8, symSize: 0x80 }
  - { offsetInCU: 0x9468, offset: 0x2776A, size: 0x8, addend: 0x0, symName: __ZNSt3__110__tree_minB7v160006IPNS_16__tree_node_baseIPvEEEET_S5_, symObjAddr: 0x715C, symBinAddr: 0x10000AB78, symSize: 0x40 }
  - { offsetInCU: 0x9970, offset: 0x27C72, size: 0x8, addend: 0x0, symName: __ZSt28__throw_bad_array_new_lengthB7v160006v, symObjAddr: 0x3B34, symBinAddr: 0x100007E2C, symSize: 0x34 }
  - { offsetInCU: 0xC428, offset: 0x2A72A, size: 0x8, addend: 0x0, symName: __ZN7ClassicC2Ev, symObjAddr: 0x0, symBinAddr: 0x100004C08, symSize: 0xC0 }
  - { offsetInCU: 0xC452, offset: 0x2A754, size: 0x8, addend: 0x0, symName: __ZNSt3__13mapINS_12basic_stringIcNS_11char_traitsIcEENS_9allocatorIcEEEEiNS_4lessIS6_EENS4_INS_4pairIKS6_iEEEEEC1B7v160006Ev, symObjAddr: 0xC0, symBinAddr: 0x100004CC8, symSize: 0x2C }
  - { offsetInCU: 0xC47B, offset: 0x2A77D, size: 0x8, addend: 0x0, symName: __ZNSt3__112basic_stringIcNS_11char_traitsIcEENS_9allocatorIcEEEaSB7v160006EPKc, symObjAddr: 0xEC, symBinAddr: 0x100004CF4, symSize: 0x2C }
  - { offsetInCU: 0xC4AE, offset: 0x2A7B0, size: 0x8, addend: 0x0, symName: __ZNSt3__13mapINS_12basic_stringIcNS_11char_traitsIcEENS_9allocatorIcEEEEiNS_4lessIS6_EENS4_INS_4pairIKS6_iEEEEED1B7v160006Ev, symObjAddr: 0x118, symBinAddr: 0x100004D20, symSize: 0x2C }
  - { offsetInCU: 0xC4D7, offset: 0x2A7D9, size: 0x8, addend: 0x0, symName: __ZN7ClassicC1Ev, symObjAddr: 0x144, symBinAddr: 0x100004D4C, symSize: 0x2C }
  - { offsetInCU: 0xC501, offset: 0x2A803, size: 0x8, addend: 0x0, symName: __ZN7ClassicD2Ev, symObjAddr: 0x170, symBinAddr: 0x100004D78, symSize: 0x48 }
  - { offsetInCU: 0xC52B, offset: 0x2A82D, size: 0x8, addend: 0x0, symName: __ZN7ClassicD1Ev, symObjAddr: 0x1B8, symBinAddr: 0x100004DC0, symSize: 0x2C }
  - { offsetInCU: 0xC555, offset: 0x2A857, size: 0x8, addend: 0x0, symName: __ZN7ClassicD0Ev, symObjAddr: 0x1E4, symBinAddr: 0x100004DEC, symSize: 0x30 }
  - { offsetInCU: 0xC57F, offset: 0x2A881, size: 0x8, addend: 0x0, symName: __ZNK7Classic13getMajorActorEv, symObjAddr: 0x214, symBinAddr: 0x100004E1C, symSize: 0x4C }
  - { offsetInCU: 0xC5A5, offset: 0x2A8A7, size: 0x8, addend: 0x0, symName: __ZNKSt3__13mapINS_12basic_stringIcNS_11char_traitsIcEENS_9allocatorIcEEEEiNS_4lessIS6_EENS4_INS_4pairIKS6_iEEEEE5beginB7v160006Ev, symObjAddr: 0x260, symBinAddr: 0x100004E68, symSize: 0x38 }
  - { offsetInCU: 0xC5C9, offset: 0x2A8CB, size: 0x8, addend: 0x0, symName: __ZNKSt3__120__map_const_iteratorINS_21__tree_const_iteratorINS_12__value_typeINS_12basic_stringIcNS_11char_traitsIcEENS_9allocatorIcEEEEiEEPNS_11__tree_nodeIS9_PvEElEEEptB7v160006Ev, symObjAddr: 0x298, symBinAddr: 0x100004EA0, symSize: 0x2C }
  - { offsetInCU: 0xC5ED, offset: 0x2A8EF, size: 0x8, addend: 0x0, symName: __ZNK7Classic15getReleaseMonthEv, symObjAddr: 0x2C4, symBinAddr: 0x100004ECC, symSize: 0x18 }
  - { offsetInCU: 0xC613, offset: 0x2A915, size: 0x8, addend: 0x0, symName: __ZN7Classic7setDataERNSt3__118basic_stringstreamIcNS0_11char_traitsIcEENS0_9allocatorIcEEEE, symObjAddr: 0x2DC, symBinAddr: 0x100004EE4, symSize: 0xB0 }
  - { offsetInCU: 0xC647, offset: 0x2A949, size: 0x8, addend: 0x0, symName: __ZN7Classic8GetSetMAERNSt3__118basic_stringstreamIcNS0_11char_traitsIcEENS0_9allocatorIcEEEE, symObjAddr: 0x38C, symBinAddr: 0x100004F94, symSize: 0x1C8 }
  - { offsetInCU: 0xC6A6, offset: 0x2A9A8, size: 0x8, addend: 0x0, symName: __ZN7Classic11GetSetMonthERNSt3__118basic_stringstreamIcNS0_11char_traitsIcEENS0_9allocatorIcEEEE, symObjAddr: 0x554, symBinAddr: 0x10000515C, symSize: 0xA4 }
  - { offsetInCU: 0xC6E8, offset: 0x2A9EA, size: 0x8, addend: 0x0, symName: __ZN7Classic15setReleaseMonthEi, symObjAddr: 0x5F8, symBinAddr: 0x100005200, symSize: 0x20 }
  - { offsetInCU: 0xC71C, offset: 0x2AA1E, size: 0x8, addend: 0x0, symName: __ZNK7Classic11PrintHeaderEv, symObjAddr: 0x618, symBinAddr: 0x100005220, symSize: 0x188 }
  - { offsetInCU: 0xC742, offset: 0x2AA44, size: 0x8, addend: 0x0, symName: __ZNSt3__113basic_ostreamIcNS_11char_traitsIcEEElsB7v160006EPFRNS_8ios_baseES5_E, symObjAddr: 0x8AC, symBinAddr: 0x1000053E8, symSize: 0x40 }
  - { offsetInCU: 0xC774, offset: 0x2AA76, size: 0x8, addend: 0x0, symName: __ZN7Classic16InsertMajorActorENSt3__112basic_stringIcNS0_11char_traitsIcEENS0_9allocatorIcEEEEi, symObjAddr: 0x948, symBinAddr: 0x100005484, symSize: 0x98 }
  - { offsetInCU: 0xC7B7, offset: 0x2AAB9, size: 0x8, addend: 0x0, symName: __ZNSt3__13mapINS_12basic_stringIcNS_11char_traitsIcEENS_9allocatorIcEEEEiNS_4lessIS6_EENS4_INS_4pairIKS6_iEEEEE6insertB7v160006EOSB_, symObjAddr: 0x9E0, symBinAddr: 0x10000551C, symSize: 0x4C }
  - { offsetInCU: 0xC7EF, offset: 0x2AAF1, size: 0x8, addend: 0x0, symName: __ZNSt3__14pairIKNS_12basic_stringIcNS_11char_traitsIcEENS_9allocatorIcEEEEiEC1B7v160006ILb1ELPv0EEERS7_RKi, symObjAddr: 0xA2C, symBinAddr: 0x100005568, symSize: 0x3C }
  - { offsetInCU: 0xC845, offset: 0x2AB47, size: 0x8, addend: 0x0, symName: __ZNSt3__14pairIKNS_12basic_stringIcNS_11char_traitsIcEENS_9allocatorIcEEEEiED1Ev, symObjAddr: 0xA68, symBinAddr: 0x1000055A4, symSize: 0x2C }
  - { offsetInCU: 0xC86F, offset: 0x2AB71, size: 0x8, addend: 0x0, symName: __ZN7Classic5MergeEPS_, symObjAddr: 0xA94, symBinAddr: 0x1000055D0, symSize: 0x94 }
  - { offsetInCU: 0xC8A3, offset: 0x2ABA5, size: 0x8, addend: 0x0, symName: __ZN7Classic14IncrementStockENSt3__112basic_stringIcNS0_11char_traitsIcEENS0_9allocatorIcEEEE, symObjAddr: 0xB28, symBinAddr: 0x100005664, symSize: 0x98 }
  - { offsetInCU: 0xC8D8, offset: 0x2ABDA, size: 0x8, addend: 0x0, symName: __ZNSt3__13mapINS_12basic_stringIcNS_11char_traitsIcEENS_9allocatorIcEEEEiNS_4lessIS6_EENS4_INS_4pairIKS6_iEEEEE4findB7v160006ERSA_, symObjAddr: 0xBF0, symBinAddr: 0x10000572C, symSize: 0x40 }
  - { offsetInCU: 0xC90B, offset: 0x2AC0D, size: 0x8, addend: 0x0, symName: __ZNSt3__13mapINS_12basic_stringIcNS_11char_traitsIcEENS_9allocatorIcEEEEiNS_4lessIS6_EENS4_INS_4pairIKS6_iEEEEE3endB7v160006Ev, symObjAddr: 0xC30, symBinAddr: 0x10000576C, symSize: 0x38 }
  - { offsetInCU: 0xC92F, offset: 0x2AC31, size: 0x8, addend: 0x0, symName: __ZNSt3__13mapINS_12basic_stringIcNS_11char_traitsIcEENS_9allocatorIcEEEEiNS_4lessIS6_EENS4_INS_4pairIKS6_iEEEEE2atERSA_, symObjAddr: 0xC68, symBinAddr: 0x1000057A4, symSize: 0x6C }
  - { offsetInCU: 0xC982, offset: 0x2AC84, size: 0x8, addend: 0x0, symName: __ZN7Classic14DecrementStockENSt3__112basic_stringIcNS0_11char_traitsIcEENS0_9allocatorIcEEEE, symObjAddr: 0xCD4, symBinAddr: 0x100005810, symSize: 0x100 }
  - { offsetInCU: 0xC9B6, offset: 0x2ACB8, size: 0x8, addend: 0x0, symName: __ZlsRNSt3__113basic_ostreamIcNS_11char_traitsIcEEEERK7Classic, symObjAddr: 0xDD4, symBinAddr: 0x100005910, symSize: 0x38 }
  - { offsetInCU: 0xC9F1, offset: 0x2ACF3, size: 0x8, addend: 0x0, symName: __ZNK7ClassicltERK5Media, symObjAddr: 0xE0C, symBinAddr: 0x100005948, symSize: 0x270 }
  - { offsetInCU: 0xCA34, offset: 0x2AD36, size: 0x8, addend: 0x0, symName: __ZNSt3__120_CmpUnspecifiedParamC1B7v160006EMS0_i, symObjAddr: 0x10FC, symBinAddr: 0x100005C38, symSize: 0x34 }
  - { offsetInCU: 0xCA68, offset: 0x2AD6A, size: 0x8, addend: 0x0, symName: __ZNK7ClassicgtERK5Media, symObjAddr: 0x1130, symBinAddr: 0x100005C6C, symSize: 0x78 }
  - { offsetInCU: 0xCA9C, offset: 0x2AD9E, size: 0x8, addend: 0x0, symName: __ZNK7ClassiceqERK5Media, symObjAddr: 0x11A8, symBinAddr: 0x100005CE4, symSize: 0x514 }
  - { offsetInCU: 0xCAD0, offset: 0x2ADD2, size: 0x8, addend: 0x0, symName: __ZNK7Classic18CompareMajorActorsERKNSt3__112basic_stringIcNS0_11char_traitsIcEENS0_9allocatorIcEEEE, symObjAddr: 0x1718, symBinAddr: 0x100006254, symSize: 0xF8 }
  - { offsetInCU: 0xCB55, offset: 0x2AE57, size: 0x8, addend: 0x0, symName: __ZNKSt3__13mapINS_12basic_stringIcNS_11char_traitsIcEENS_9allocatorIcEEEEiNS_4lessIS6_EENS4_INS_4pairIKS6_iEEEEE3endB7v160006Ev, symObjAddr: 0x1958, symBinAddr: 0x100006494, symSize: 0x38 }
  - { offsetInCU: 0xCB79, offset: 0x2AE7B, size: 0x8, addend: 0x0, symName: __ZNKSt3__120__map_const_iteratorINS_21__tree_const_iteratorINS_12__value_typeINS_12basic_stringIcNS_11char_traitsIcEENS_9allocatorIcEEEEiEEPNS_11__tree_nodeIS9_PvEElEEEdeB7v160006Ev, symObjAddr: 0x19C0, symBinAddr: 0x1000064FC, symSize: 0x28 }
  - { offsetInCU: 0xCBB6, offset: 0x2AEB8, size: 0x8, addend: 0x0, symName: __ZNSt3__14pairINS_12basic_stringIcNS_11char_traitsIcEENS_9allocatorIcEEEEiEC1B7v160006IKS6_iLPv0EEERKNS0_IT_T0_EE, symObjAddr: 0x19E8, symBinAddr: 0x100006524, symSize: 0x34 }
  - { offsetInCU: 0xCC06, offset: 0x2AF08, size: 0x8, addend: 0x0, symName: __ZNSt3__14pairINS_12basic_stringIcNS_11char_traitsIcEENS_9allocatorIcEEEEiED1Ev, symObjAddr: 0x1A1C, symBinAddr: 0x100006558, symSize: 0x2C }
  - { offsetInCU: 0xCC30, offset: 0x2AF32, size: 0x8, addend: 0x0, symName: __ZNSt3__120__map_const_iteratorINS_21__tree_const_iteratorINS_12__value_typeINS_12basic_stringIcNS_11char_traitsIcEENS_9allocatorIcEEEEiEEPNS_11__tree_nodeIS9_PvEElEEEppB7v160006Ev, symObjAddr: 0x1A48, symBinAddr: 0x100006584, symSize: 0x2C }
  - { offsetInCU: 0xCC59, offset: 0x2AF5B, size: 0x8, addend: 0x0, symName: __ZNSt3__112basic_stringIcNS_11char_traitsIcEENS_9allocatorIcEEEaSB7v160006EOS5_, symObjAddr: 0x1F0C, symBinAddr: 0x100006A0C, symSize: 0x34 }
  - { offsetInCU: 0xCC8C, offset: 0x2AF8E, size: 0x8, addend: 0x0, symName: __ZNK7Classic7DisplayERNSt3__113basic_ostreamIcNS0_11char_traitsIcEEEE, symObjAddr: 0x1F40, symBinAddr: 0x100006A40, symSize: 0x5CC }
  - { offsetInCU: 0xCD1A, offset: 0x2B01C, size: 0x8, addend: 0x0, symName: __ZNSt3__14pairIKNS_12basic_stringIcNS_11char_traitsIcEENS_9allocatorIcEEEEiEC1ERKS8_, symObjAddr: 0x258C, symBinAddr: 0x100007058, symSize: 0x34 }
  - { offsetInCU: 0xCD4E, offset: 0x2B050, size: 0x8, addend: 0x0, symName: __ZNKSt3__112basic_stringIcNS_11char_traitsIcEENS_9allocatorIcEEE6lengthB7v160006Ev, symObjAddr: 0x25C0, symBinAddr: 0x10000708C, symSize: 0x24 }
  - { offsetInCU: 0xCD72, offset: 0x2B074, size: 0x8, addend: 0x0, symName: __ZNSt3__18ios_base4setfB7v160006Ejj, symObjAddr: 0x2650, symBinAddr: 0x10000711C, symSize: 0x5C }
  - { offsetInCU: 0xCDC5, offset: 0x2B0C7, size: 0x8, addend: 0x0, symName: __ZNSt3__18ios_base6unsetfB7v160006Ej, symObjAddr: 0x26AC, symBinAddr: 0x100007178, symSize: 0x28 }
  - { offsetInCU: 0xCDFB, offset: 0x2B0FD, size: 0x8, addend: 0x0, symName: __ZNSt3__18__iom_t6C1B7v160006Ei, symObjAddr: 0x26D4, symBinAddr: 0x1000071A0, symSize: 0x34 }
  - { offsetInCU: 0xCE32, offset: 0x2B134, size: 0x8, addend: 0x0, symName: __ZNSt3__18__iom_t6C2B7v160006Ei, symObjAddr: 0x2708, symBinAddr: 0x1000071D4, symSize: 0x20 }
  - { offsetInCU: 0xCE69, offset: 0x2B16B, size: 0x8, addend: 0x0, symName: __ZNSt3__14pairIKNS_12basic_stringIcNS_11char_traitsIcEENS_9allocatorIcEEEEiEC2B7v160006ILb1ELPv0EEERS7_RKi, symObjAddr: 0x2728, symBinAddr: 0x1000071F4, symSize: 0x44 }
  - { offsetInCU: 0xCEBF, offset: 0x2B1C1, size: 0x8, addend: 0x0, symName: __ZNSt3__14pairIKNS_12basic_stringIcNS_11char_traitsIcEENS_9allocatorIcEEEEiED2Ev, symObjAddr: 0x276C, symBinAddr: 0x100007238, symSize: 0x2C }
  - { offsetInCU: 0xCEE9, offset: 0x2B1EB, size: 0x8, addend: 0x0, symName: __ZNKSt3__112basic_stringIcNS_11char_traitsIcEENS_9allocatorIcEEEcvNS_17basic_string_viewIcS2_EEB7v160006Ev, symObjAddr: 0x2814, symBinAddr: 0x1000072E0, symSize: 0x50 }
  - { offsetInCU: 0xCF0D, offset: 0x2B20F, size: 0x8, addend: 0x0, symName: __ZNKSt3__117basic_string_viewIcNS_11char_traitsIcEEE7compareES3_, symObjAddr: 0x2864, symBinAddr: 0x100007330, symSize: 0x13C }
  - { offsetInCU: 0xCF5E, offset: 0x2B260, size: 0x8, addend: 0x0, symName: __ZNKSt3__117basic_string_viewIcNS_11char_traitsIcEEE4sizeB7v160006Ev, symObjAddr: 0x29CC, symBinAddr: 0x100007498, symSize: 0x18 }
  - { offsetInCU: 0xCF82, offset: 0x2B284, size: 0x8, addend: 0x0, symName: __ZNSt3__111char_traitsIcE7compareEPKcS3_m, symObjAddr: 0x29F0, symBinAddr: 0x1000074B0, symSize: 0x6C }
  - { offsetInCU: 0xCFC1, offset: 0x2B2C3, size: 0x8, addend: 0x0, symName: __ZNKSt3__117basic_string_viewIcNS_11char_traitsIcEEE4dataB7v160006Ev, symObjAddr: 0x2A5C, symBinAddr: 0x10000751C, symSize: 0x18 }
  - { offsetInCU: 0xCFEF, offset: 0x2B2F1, size: 0x8, addend: 0x0, symName: __ZNKSt3__16__lessImmEclB7v160006ERKmS3_, symObjAddr: 0x2AC8, symBinAddr: 0x100007588, symSize: 0x34 }
  - { offsetInCU: 0xD02F, offset: 0x2B331, size: 0x8, addend: 0x0, symName: __ZNSt3__117basic_string_viewIcNS_11char_traitsIcEEEC1B7v160006EPKcm, symObjAddr: 0x2BAC, symBinAddr: 0x1000075F0, symSize: 0x3C }
  - { offsetInCU: 0xD076, offset: 0x2B378, size: 0x8, addend: 0x0, symName: __ZNSt3__117basic_string_viewIcNS_11char_traitsIcEEEC2B7v160006EPKcm, symObjAddr: 0x2D80, symBinAddr: 0x10000762C, symSize: 0x50 }
  - { offsetInCU: 0xD0BD, offset: 0x2B3BF, size: 0x8, addend: 0x0, symName: __ZNSt3__120_CmpUnspecifiedParamC2B7v160006EMS0_i, symObjAddr: 0x2DD0, symBinAddr: 0x10000767C, symSize: 0x18 }
  - { offsetInCU: 0xD0F1, offset: 0x2B3F3, size: 0x8, addend: 0x0, symName: __ZNSt3__117basic_string_viewIcNS_11char_traitsIcEEEC1B7v160006EPKc, symObjAddr: 0x2E98, symBinAddr: 0x100007744, symSize: 0x34 }
  - { offsetInCU: 0xD129, offset: 0x2B42B, size: 0x8, addend: 0x0, symName: __ZNSt3__117basic_string_viewIcNS_11char_traitsIcEEEC2B7v160006EPKc, symObjAddr: 0x2ECC, symBinAddr: 0x100007778, symSize: 0x44 }
  - { offsetInCU: 0xD161, offset: 0x2B463, size: 0x8, addend: 0x0, symName: __ZNSt3__14pairINS_12basic_stringIcNS_11char_traitsIcEENS_9allocatorIcEEEEiEC2B7v160006IKS6_iLPv0EEERKNS0_IT_T0_EE, symObjAddr: 0x2F8C, symBinAddr: 0x1000077E0, symSize: 0x40 }
  - { offsetInCU: 0xD1B1, offset: 0x2B4B3, size: 0x8, addend: 0x0, symName: __ZNSt3__14pairINS_12basic_stringIcNS_11char_traitsIcEENS_9allocatorIcEEEEiED2Ev, symObjAddr: 0x2FCC, symBinAddr: 0x100007820, symSize: 0x2C }
  - { offsetInCU: 0xD1EA, offset: 0x2B4EC, size: 0x8, addend: 0x0, symName: __ZNSt3__116allocator_traitsINS_9allocatorIcEEE37select_on_container_copy_constructionB7v160006IS2_vvEES2_RKS2_, symObjAddr: 0x32F0, symBinAddr: 0x10000784C, symSize: 0x10 }
  - { offsetInCU: 0xD21B, offset: 0x2B51D, size: 0x8, addend: 0x0, symName: __ZNKSt3__112basic_stringIcNS_11char_traitsIcEENS_9allocatorIcEEE13get_allocatorB7v160006Ev, symObjAddr: 0x3300, symBinAddr: 0x10000785C, symSize: 0x24 }
  - { offsetInCU: 0xD23F, offset: 0x2B541, size: 0x8, addend: 0x0, symName: __ZNSt3__112basic_stringIcNS_11char_traitsIcEENS_9allocatorIcEEEC1B7v160006ENS_24__uninitialized_size_tagEmRKS4_, symObjAddr: 0x3324, symBinAddr: 0x100007880, symSize: 0x3C }
  - { offsetInCU: 0xD292, offset: 0x2B594, size: 0x8, addend: 0x0, symName: __ZNSt3__111char_traitsIcE4copyEPcPKcm, symObjAddr: 0x33C8, symBinAddr: 0x1000078BC, symSize: 0x5C }
  - { offsetInCU: 0xD2D1, offset: 0x2B5D3, size: 0x8, addend: 0x0, symName: __ZNSt3__111char_traitsIcE6assignEPcmc, symObjAddr: 0x3424, symBinAddr: 0x100007918, symSize: 0x44 }
  - { offsetInCU: 0xD310, offset: 0x2B612, size: 0x8, addend: 0x0, symName: __ZNSt3__112basic_stringIcNS_11char_traitsIcEENS_9allocatorIcEEEC2B7v160006ENS_24__uninitialized_size_tagEmRKS4_, symObjAddr: 0x34C4, symBinAddr: 0x10000795C, symSize: 0x118 }
  - { offsetInCU: 0xD38F, offset: 0x2B691, size: 0x8, addend: 0x0, symName: __ZNSt3__117__compressed_pairINS_12basic_stringIcNS_11char_traitsIcEENS_9allocatorIcEEE5__repES5_EC1B7v160006INS_18__default_init_tagERKS5_EEOT_OT0_, symObjAddr: 0x35DC, symBinAddr: 0x100007A74, symSize: 0x3C }
  - { offsetInCU: 0xD3E6, offset: 0x2B6E8, size: 0x8, addend: 0x0, symName: __ZNKSt3__112basic_stringIcNS_11char_traitsIcEENS_9allocatorIcEEE20__throw_length_errorB7v160006Ev, symObjAddr: 0x36C4, symBinAddr: 0x100007AB0, symSize: 0x1C }
  - { offsetInCU: 0xD40A, offset: 0x2B70C, size: 0x8, addend: 0x0, symName: __ZNSt3__112basic_stringIcNS_11char_traitsIcEENS_9allocatorIcEEE13__fits_in_ssoB7v160006Em, symObjAddr: 0x36E0, symBinAddr: 0x100007ACC, symSize: 0x20 }
  - { offsetInCU: 0xD42E, offset: 0x2B730, size: 0x8, addend: 0x0, symName: __ZNSt3__112basic_stringIcNS_11char_traitsIcEENS_9allocatorIcEEE11__recommendB7v160006Em, symObjAddr: 0x3778, symBinAddr: 0x100007AEC, symSize: 0x84 }
  - { offsetInCU: 0xD461, offset: 0x2B763, size: 0x8, addend: 0x0, symName: __ZNSt3__116allocator_traitsINS_9allocatorIcEEE8allocateB7v160006ERS2_m, symObjAddr: 0x37FC, symBinAddr: 0x100007B70, symSize: 0x2C }
  - { offsetInCU: 0xD494, offset: 0x2B796, size: 0x8, addend: 0x0, symName: __ZNSt3__112basic_stringIcNS_11char_traitsIcEENS_9allocatorIcEEE7__allocB7v160006Ev, symObjAddr: 0x3828, symBinAddr: 0x100007B9C, symSize: 0x24 }
  - { offsetInCU: 0xD4B8, offset: 0x2B7BA, size: 0x8, addend: 0x0, symName: __ZNSt3__112basic_stringIcNS_11char_traitsIcEENS_9allocatorIcEEE16__begin_lifetimeB7v160006EPcm, symObjAddr: 0x384C, symBinAddr: 0x100007BC0, symSize: 0x14 }
  - { offsetInCU: 0xD4EB, offset: 0x2B7ED, size: 0x8, addend: 0x0, symName: __ZNSt3__112basic_stringIcNS_11char_traitsIcEENS_9allocatorIcEEE14__set_long_capB7v160006Em, symObjAddr: 0x3860, symBinAddr: 0x100007BD4, symSize: 0x70 }
  - { offsetInCU: 0xD51E, offset: 0x2B820, size: 0x8, addend: 0x0, symName: __ZNSt3__112basic_stringIcNS_11char_traitsIcEENS_9allocatorIcEEE18__set_long_pointerB7v160006EPc, symObjAddr: 0x38D0, symBinAddr: 0x100007C44, symSize: 0x38 }
  - { offsetInCU: 0xD551, offset: 0x2B853, size: 0x8, addend: 0x0, symName: __ZNSt3__117__compressed_pairINS_12basic_stringIcNS_11char_traitsIcEENS_9allocatorIcEEE5__repES5_EC2B7v160006INS_18__default_init_tagERKS5_EEOT_OT0_, symObjAddr: 0x3940, symBinAddr: 0x100007C7C, symSize: 0x40 }
  - { offsetInCU: 0xD5A8, offset: 0x2B8AA, size: 0x8, addend: 0x0, symName: __ZNSt3__122__compressed_pair_elemINS_9allocatorIcEELi1ELb1EEC2B7v160006IRKS2_vEEOT_, symObjAddr: 0x3980, symBinAddr: 0x100007CBC, symSize: 0x18 }
  - { offsetInCU: 0xD5EA, offset: 0x2B8EC, size: 0x8, addend: 0x0, symName: __ZNSt12length_errorC1B7v160006EPKc, symObjAddr: 0x3A40, symBinAddr: 0x100007D38, symSize: 0x34 }
  - { offsetInCU: 0xD621, offset: 0x2B923, size: 0x8, addend: 0x0, symName: __ZNSt12length_errorC2B7v160006EPKc, symObjAddr: 0x3A74, symBinAddr: 0x100007D6C, symSize: 0x4C }
  - { offsetInCU: 0xD658, offset: 0x2B95A, size: 0x8, addend: 0x0, symName: __ZNSt3__112basic_stringIcNS_11char_traitsIcEENS_9allocatorIcEEE10__align_itB7v160006ILm16EEEmm, symObjAddr: 0x3AC0, symBinAddr: 0x100007DB8, symSize: 0x1C }
  - { offsetInCU: 0xD686, offset: 0x2B988, size: 0x8, addend: 0x0, symName: __ZNSt3__19allocatorIcE8allocateB7v160006Em, symObjAddr: 0x3ADC, symBinAddr: 0x100007DD4, symSize: 0x58 }
  - { offsetInCU: 0xD6B8, offset: 0x2B9BA, size: 0x8, addend: 0x0, symName: __ZNSt3__117__compressed_pairINS_12basic_stringIcNS_11char_traitsIcEENS_9allocatorIcEEE5__repES5_E6secondB7v160006Ev, symObjAddr: 0x3C38, symBinAddr: 0x100007F30, symSize: 0x24 }
  - { offsetInCU: 0xD6DC, offset: 0x2B9DE, size: 0x8, addend: 0x0, symName: __ZNSt3__122__compressed_pair_elemINS_9allocatorIcEELi1ELb1EE5__getB7v160006Ev, symObjAddr: 0x3C5C, symBinAddr: 0x100007F54, symSize: 0x14 }
  - { offsetInCU: 0xD723, offset: 0x2BA25, size: 0x8, addend: 0x0, symName: __ZNKSt3__114__copy_trivialclB7v160006IKccLi0EEENS_4pairIPT_PT0_EES5_S5_S7_, symObjAddr: 0x3ED0, symBinAddr: 0x100008164, symSize: 0x48 }
  - { offsetInCU: 0xD7A3, offset: 0x2BAA5, size: 0x8, addend: 0x0, symName: __ZNSt3__119__unwrap_range_implIPKcS2_E8__unwrapB7v160006ES2_S2_, symObjAddr: 0x3FDC, symBinAddr: 0x100008270, symSize: 0x58 }
  - { offsetInCU: 0xD7D9, offset: 0x2BADB, size: 0x8, addend: 0x0, symName: __ZNSt3__14pairIPKcS2_EC1B7v160006IS2_S2_LPv0EEEOT_OT0_, symObjAddr: 0x4058, symBinAddr: 0x1000082EC, symSize: 0x3C }
  - { offsetInCU: 0xD837, offset: 0x2BB39, size: 0x8, addend: 0x0, symName: __ZNSt3__118__unwrap_iter_implIPKcLb1EE8__unwrapB7v160006ES2_, symObjAddr: 0x4094, symBinAddr: 0x100008328, symSize: 0x24 }
  - { offsetInCU: 0xD85A, offset: 0x2BB5C, size: 0x8, addend: 0x0, symName: __ZNSt3__14pairIPKcS2_EC2B7v160006IS2_S2_LPv0EEEOT_OT0_, symObjAddr: 0x40B8, symBinAddr: 0x10000834C, symSize: 0x34 }
  - { offsetInCU: 0xD8C2, offset: 0x2BBC4, size: 0x8, addend: 0x0, symName: __ZNSt3__14pairIPKcPcEC1B7v160006IRS2_S3_LPv0EEEOT_OT0_, symObjAddr: 0x41A0, symBinAddr: 0x100008434, symSize: 0x3C }
  - { offsetInCU: 0xD920, offset: 0x2BC22, size: 0x8, addend: 0x0, symName: __ZNSt3__14pairIPKcPcEC2B7v160006IRS2_S3_LPv0EEEOT_OT0_, symObjAddr: 0x41DC, symBinAddr: 0x100008470, symSize: 0x34 }
  - { offsetInCU: 0xD97E, offset: 0x2BC80, size: 0x8, addend: 0x0, symName: __ZNSt3__118__unwrap_iter_implIPcLb1EE8__unwrapB7v160006ES1_, symObjAddr: 0x4210, symBinAddr: 0x1000084A4, symSize: 0x24 }
  - { offsetInCU: 0xD9A1, offset: 0x2BCA3, size: 0x8, addend: 0x0, symName: __ZNSt3__14pairIPKcPcEC1B7v160006IS2_S3_LPv0EEEOT_OT0_, symObjAddr: 0x4234, symBinAddr: 0x1000084C8, symSize: 0x3C }
  - { offsetInCU: 0xD9FF, offset: 0x2BD01, size: 0x8, addend: 0x0, symName: __ZNSt3__14pairIPKcPcEC2B7v160006IS2_S3_LPv0EEEOT_OT0_, symObjAddr: 0x4270, symBinAddr: 0x100008504, symSize: 0x34 }
  - { offsetInCU: 0xDA5D, offset: 0x2BD5F, size: 0x8, addend: 0x0, symName: __ZNSt3__119__unwrap_range_implIPKcS2_E8__rewrapB7v160006ES2_S2_, symObjAddr: 0x42A4, symBinAddr: 0x100008538, symSize: 0x2C }
  - { offsetInCU: 0xDA8E, offset: 0x2BD90, size: 0x8, addend: 0x0, symName: __ZNSt3__118__unwrap_iter_implIPKcLb1EE8__rewrapB7v160006ES2_S2_, symObjAddr: 0x430C, symBinAddr: 0x1000085A0, symSize: 0x48 }
  - { offsetInCU: 0xDABF, offset: 0x2BDC1, size: 0x8, addend: 0x0, symName: __ZNSt3__118__unwrap_iter_implIPcLb1EE8__rewrapB7v160006ES1_S1_, symObjAddr: 0x4354, symBinAddr: 0x1000085E8, symSize: 0x48 }
  - { offsetInCU: 0xDAF0, offset: 0x2BDF2, size: 0x8, addend: 0x0, symName: __ZNSt3__112basic_stringIcNS_11char_traitsIcEENS_9allocatorIcEEE13__move_assignB7v160006ERS5_NS_17integral_constantIbLb1EEE, symObjAddr: 0x4458, symBinAddr: 0x1000086EC, symSize: 0xC8 }
  - { offsetInCU: 0xDB31, offset: 0x2BE33, size: 0x8, addend: 0x0, symName: __ZNSt3__116allocator_traitsINS_9allocatorIcEEE10deallocateB7v160006ERS2_Pcm, symObjAddr: 0x4520, symBinAddr: 0x1000087B4, symSize: 0x34 }
  - { offsetInCU: 0xDB73, offset: 0x2BE75, size: 0x8, addend: 0x0, symName: __ZNKSt3__112basic_stringIcNS_11char_traitsIcEENS_9allocatorIcEEE14__get_long_capB7v160006Ev, symObjAddr: 0x4554, symBinAddr: 0x1000087E8, symSize: 0x30 }
  - { offsetInCU: 0xDB97, offset: 0x2BE99, size: 0x8, addend: 0x0, symName: __ZNSt3__112basic_stringIcNS_11char_traitsIcEENS_9allocatorIcEEE19__move_assign_allocB7v160006ERS5_, symObjAddr: 0x4584, symBinAddr: 0x100008818, symSize: 0x2C }
  - { offsetInCU: 0xDBCA, offset: 0x2BECC, size: 0x8, addend: 0x0, symName: __ZNSt3__19allocatorIcE10deallocateB7v160006EPcm, symObjAddr: 0x45D4, symBinAddr: 0x100008844, symSize: 0x40 }
  - { offsetInCU: 0xDC0A, offset: 0x2BF0C, size: 0x8, addend: 0x0, symName: __ZNSt3__112basic_stringIcNS_11char_traitsIcEENS_9allocatorIcEEE19__move_assign_allocB7v160006ERS5_NS_17integral_constantIbLb1EEE, symObjAddr: 0x471C, symBinAddr: 0x10000898C, symSize: 0x38 }
  - { offsetInCU: 0xDC49, offset: 0x2BF4B, size: 0x8, addend: 0x0, symName: __ZNSt3__14pairIKNS_12basic_stringIcNS_11char_traitsIcEENS_9allocatorIcEEEEiEC2ERKS8_, symObjAddr: 0x4754, symBinAddr: 0x1000089C4, symSize: 0x40 }
  - { offsetInCU: 0xDC7D, offset: 0x2BF7F, size: 0x8, addend: 0x0, symName: __ZNSt3__13mapINS_12basic_stringIcNS_11char_traitsIcEENS_9allocatorIcEEEEiNS_4lessIS6_EENS4_INS_4pairIKS6_iEEEEEC2B7v160006Ev, symObjAddr: 0x4794, symBinAddr: 0x100008A04, symSize: 0x40 }
  - { offsetInCU: 0xDCA6, offset: 0x2BFA8, size: 0x8, addend: 0x0, symName: __ZNSt3__119__map_value_compareINS_12basic_stringIcNS_11char_traitsIcEENS_9allocatorIcEEEENS_12__value_typeIS6_iEENS_4lessIS6_EELb1EEC1B7v160006ESA_, symObjAddr: 0x47D4, symBinAddr: 0x100008A44, symSize: 0x2C }
  - { offsetInCU: 0xDCDE, offset: 0x2BFE0, size: 0x8, addend: 0x0, symName: __ZNSt3__16__treeINS_12__value_typeINS_12basic_stringIcNS_11char_traitsIcEENS_9allocatorIcEEEEiEENS_19__map_value_compareIS7_S8_NS_4lessIS7_EELb1EEENS5_IS8_EEEC1ERKSC_, symObjAddr: 0x4800, symBinAddr: 0x100008A70, symSize: 0x34 }
  - { offsetInCU: 0xDD18, offset: 0x2C01A, size: 0x8, addend: 0x0, symName: __ZNSt3__119__map_value_compareINS_12basic_stringIcNS_11char_traitsIcEENS_9allocatorIcEEEENS_12__value_typeIS6_iEENS_4lessIS6_EELb1EEC2B7v160006ESA_, symObjAddr: 0x4834, symBinAddr: 0x100008AA4, symSize: 0x14 }
  - { offsetInCU: 0xDD50, offset: 0x2C052, size: 0x8, addend: 0x0, symName: __ZNSt3__16__treeINS_12__value_typeINS_12basic_stringIcNS_11char_traitsIcEENS_9allocatorIcEEEEiEENS_19__map_value_compareIS7_S8_NS_4lessIS7_EELb1EEENS5_IS8_EEEC2ERKSC_, symObjAddr: 0x4848, symBinAddr: 0x100008AB8, symSize: 0x7C }
  - { offsetInCU: 0xDD8A, offset: 0x2C08C, size: 0x8, addend: 0x0, symName: __ZNSt3__117__compressed_pairINS_15__tree_end_nodeIPNS_16__tree_node_baseIPvEEEENS_9allocatorINS_11__tree_nodeINS_12__value_typeINS_12basic_stringIcNS_11char_traitsIcEENS7_IcEEEEiEES3_EEEEEC1B7v160006ILb1EvEEv, symObjAddr: 0x48C4, symBinAddr: 0x100008B34, symSize: 0x2C }
  - { offsetInCU: 0xDDC4, offset: 0x2C0C6, size: 0x8, addend: 0x0, symName: __ZNSt3__117__compressed_pairImNS_19__map_value_compareINS_12basic_stringIcNS_11char_traitsIcEENS_9allocatorIcEEEENS_12__value_typeIS7_iEENS_4lessIS7_EELb1EEEEC1B7v160006IiRKSC_EEOT_OT0_, symObjAddr: 0x48F0, symBinAddr: 0x100008B60, symSize: 0x3C }
  - { offsetInCU: 0xDE1B, offset: 0x2C11D, size: 0x8, addend: 0x0, symName: __ZNSt3__16__treeINS_12__value_typeINS_12basic_stringIcNS_11char_traitsIcEENS_9allocatorIcEEEEiEENS_19__map_value_compareIS7_S8_NS_4lessIS7_EELb1EEENS5_IS8_EEE10__end_nodeB7v160006Ev, symObjAddr: 0x492C, symBinAddr: 0x100008B9C, symSize: 0x2C }
  - { offsetInCU: 0xDE3F, offset: 0x2C141, size: 0x8, addend: 0x0, symName: __ZNSt3__16__treeINS_12__value_typeINS_12basic_stringIcNS_11char_traitsIcEENS_9allocatorIcEEEEiEENS_19__map_value_compareIS7_S8_NS_4lessIS7_EELb1EEENS5_IS8_EEE12__begin_nodeB7v160006Ev, symObjAddr: 0x4958, symBinAddr: 0x100008BC8, symSize: 0x14 }
  - { offsetInCU: 0xDE63, offset: 0x2C165, size: 0x8, addend: 0x0, symName: __ZNSt3__117__compressed_pairINS_15__tree_end_nodeIPNS_16__tree_node_baseIPvEEEENS_9allocatorINS_11__tree_nodeINS_12__value_typeINS_12basic_stringIcNS_11char_traitsIcEENS7_IcEEEEiEES3_EEEEEC2B7v160006ILb1EvEEv, symObjAddr: 0x496C, symBinAddr: 0x100008BDC, symSize: 0x34 }
  - { offsetInCU: 0xDE98, offset: 0x2C19A, size: 0x8, addend: 0x0, symName: __ZNSt3__122__compressed_pair_elemINS_15__tree_end_nodeIPNS_16__tree_node_baseIPvEEEELi0ELb0EEC2B7v160006ENS_16__value_init_tagE, symObjAddr: 0x49A0, symBinAddr: 0x100008C10, symSize: 0x2C }
  - { offsetInCU: 0xDECC, offset: 0x2C1CE, size: 0x8, addend: 0x0, symName: __ZNSt3__122__compressed_pair_elemINS_9allocatorINS_11__tree_nodeINS_12__value_typeINS_12basic_stringIcNS_11char_traitsIcEENS1_IcEEEEiEEPvEEEELi1ELb1EEC2B7v160006ENS_16__value_init_tagE, symObjAddr: 0x49CC, symBinAddr: 0x100008C3C, symSize: 0x2C }
  - { offsetInCU: 0xDF00, offset: 0x2C202, size: 0x8, addend: 0x0, symName: __ZNSt3__115__tree_end_nodeIPNS_16__tree_node_baseIPvEEEC1B7v160006Ev, symObjAddr: 0x49F8, symBinAddr: 0x100008C68, symSize: 0x2C }
  - { offsetInCU: 0xDF29, offset: 0x2C22B, size: 0x8, addend: 0x0, symName: __ZNSt3__115__tree_end_nodeIPNS_16__tree_node_baseIPvEEEC2B7v160006Ev, symObjAddr: 0x4A24, symBinAddr: 0x100008C94, symSize: 0x18 }
  - { offsetInCU: 0xDF52, offset: 0x2C254, size: 0x8, addend: 0x0, symName: __ZNSt3__19allocatorINS_11__tree_nodeINS_12__value_typeINS_12basic_stringIcNS_11char_traitsIcEENS0_IcEEEEiEEPvEEEC2B7v160006Ev, symObjAddr: 0x4A3C, symBinAddr: 0x100008CAC, symSize: 0x2C }
  - { offsetInCU: 0xDF7B, offset: 0x2C27D, size: 0x8, addend: 0x0, symName: __ZNSt3__116__non_trivial_ifILb1ENS_9allocatorINS_11__tree_nodeINS_12__value_typeINS_12basic_stringIcNS_11char_traitsIcEENS1_IcEEEEiEEPvEEEEEC2B7v160006Ev, symObjAddr: 0x4A68, symBinAddr: 0x100008CD8, symSize: 0x14 }
  - { offsetInCU: 0xDFA4, offset: 0x2C2A6, size: 0x8, addend: 0x0, symName: __ZNSt3__117__compressed_pairImNS_19__map_value_compareINS_12basic_stringIcNS_11char_traitsIcEENS_9allocatorIcEEEENS_12__value_typeIS7_iEENS_4lessIS7_EELb1EEEEC2B7v160006IiRKSC_EEOT_OT0_, symObjAddr: 0x4A7C, symBinAddr: 0x100008CEC, symSize: 0x44 }
  - { offsetInCU: 0xDFFB, offset: 0x2C2FD, size: 0x8, addend: 0x0, symName: __ZNSt3__122__compressed_pair_elemImLi0ELb0EEC2B7v160006IivEEOT_, symObjAddr: 0x4AC0, symBinAddr: 0x100008D30, symSize: 0x24 }
  - { offsetInCU: 0xE03D, offset: 0x2C33F, size: 0x8, addend: 0x0, symName: __ZNSt3__122__compressed_pair_elemINS_19__map_value_compareINS_12basic_stringIcNS_11char_traitsIcEENS_9allocatorIcEEEENS_12__value_typeIS7_iEENS_4lessIS7_EELb1EEELi1ELb1EEC2B7v160006IRKSC_vEEOT_, symObjAddr: 0x4AE4, symBinAddr: 0x100008D54, symSize: 0x18 }
  - { offsetInCU: 0xE07F, offset: 0x2C381, size: 0x8, addend: 0x0, symName: __ZNSt3__114pointer_traitsIPNS_15__tree_end_nodeIPNS_16__tree_node_baseIPvEEEEE10pointer_toB7v160006ERS6_, symObjAddr: 0x4AFC, symBinAddr: 0x100008D6C, symSize: 0x14 }
  - { offsetInCU: 0xE0A2, offset: 0x2C3A4, size: 0x8, addend: 0x0, symName: __ZNSt3__117__compressed_pairINS_15__tree_end_nodeIPNS_16__tree_node_baseIPvEEEENS_9allocatorINS_11__tree_nodeINS_12__value_typeINS_12basic_stringIcNS_11char_traitsIcEENS7_IcEEEEiEES3_EEEEE5firstB7v160006Ev, symObjAddr: 0x4B10, symBinAddr: 0x100008D80, symSize: 0x24 }
  - { offsetInCU: 0xE0C6, offset: 0x2C3C8, size: 0x8, addend: 0x0, symName: __ZNSt3__122__compressed_pair_elemINS_15__tree_end_nodeIPNS_16__tree_node_baseIPvEEEELi0ELb0EE5__getB7v160006Ev, symObjAddr: 0x4B34, symBinAddr: 0x100008DA4, symSize: 0x14 }
  - { offsetInCU: 0xE0EA, offset: 0x2C3EC, size: 0x8, addend: 0x0, symName: __ZNSt3__13mapINS_12basic_stringIcNS_11char_traitsIcEENS_9allocatorIcEEEEiNS_4lessIS6_EENS4_INS_4pairIKS6_iEEEEED2B7v160006Ev, symObjAddr: 0x4B48, symBinAddr: 0x100008DB8, symSize: 0x2C }
  - { offsetInCU: 0xE113, offset: 0x2C415, size: 0x8, addend: 0x0, symName: __ZNSt3__16__treeINS_12__value_typeINS_12basic_stringIcNS_11char_traitsIcEENS_9allocatorIcEEEEiEENS_19__map_value_compareIS7_S8_NS_4lessIS7_EELb1EEENS5_IS8_EEED1Ev, symObjAddr: 0x4B74, symBinAddr: 0x100008DE4, symSize: 0x2C }
  - { offsetInCU: 0xE13E, offset: 0x2C440, size: 0x8, addend: 0x0, symName: __ZNSt3__16__treeINS_12__value_typeINS_12basic_stringIcNS_11char_traitsIcEENS_9allocatorIcEEEEiEENS_19__map_value_compareIS7_S8_NS_4lessIS7_EELb1EEENS5_IS8_EEED2Ev, symObjAddr: 0x4BA0, symBinAddr: 0x100008E10, symSize: 0x38 }
  - { offsetInCU: 0xE169, offset: 0x2C46B, size: 0x8, addend: 0x0, symName: __ZNSt3__16__treeINS_12__value_typeINS_12basic_stringIcNS_11char_traitsIcEENS_9allocatorIcEEEEiEENS_19__map_value_compareIS7_S8_NS_4lessIS7_EELb1EEENS5_IS8_EEE7destroyEPNS_11__tree_nodeIS8_PvEE, symObjAddr: 0x4BD8, symBinAddr: 0x100008E48, symSize: 0xAC }
  - { offsetInCU: 0xE1B3, offset: 0x2C4B5, size: 0x8, addend: 0x0, symName: __ZNKSt3__16__treeINS_12__value_typeINS_12basic_stringIcNS_11char_traitsIcEENS_9allocatorIcEEEEiEENS_19__map_value_compareIS7_S8_NS_4lessIS7_EELb1EEENS5_IS8_EEE6__rootB7v160006Ev, symObjAddr: 0x4C84, symBinAddr: 0x100008EF4, symSize: 0x28 }
  - { offsetInCU: 0xE1D7, offset: 0x2C4D9, size: 0x8, addend: 0x0, symName: __ZNSt3__16__treeINS_12__value_typeINS_12basic_stringIcNS_11char_traitsIcEENS_9allocatorIcEEEEiEENS_19__map_value_compareIS7_S8_NS_4lessIS7_EELb1EEENS5_IS8_EEE12__node_allocB7v160006Ev, symObjAddr: 0x4CAC, symBinAddr: 0x100008F1C, symSize: 0x28 }
  - { offsetInCU: 0xE1FB, offset: 0x2C4FD, size: 0x8, addend: 0x0, symName: __ZNSt3__116allocator_traitsINS_9allocatorINS_11__tree_nodeINS_12__value_typeINS_12basic_stringIcNS_11char_traitsIcEENS1_IcEEEEiEEPvEEEEE7destroyB7v160006INS_4pairIKS8_iEEvvEEvRSC_PT_, symObjAddr: 0x4CD4, symBinAddr: 0x100008F44, symSize: 0x28 }
  - { offsetInCU: 0xE238, offset: 0x2C53A, size: 0x8, addend: 0x0, symName: __ZNSt3__122__tree_key_value_typesINS_12__value_typeINS_12basic_stringIcNS_11char_traitsIcEENS_9allocatorIcEEEEiEEE9__get_ptrB7v160006ERS8_, symObjAddr: 0x4CFC, symBinAddr: 0x100008F6C, symSize: 0x24 }
  - { offsetInCU: 0xE25C, offset: 0x2C55E, size: 0x8, addend: 0x0, symName: __ZNSt3__116allocator_traitsINS_9allocatorINS_11__tree_nodeINS_12__value_typeINS_12basic_stringIcNS_11char_traitsIcEENS1_IcEEEEiEEPvEEEEE10deallocateB7v160006ERSC_PSB_m, symObjAddr: 0x4D20, symBinAddr: 0x100008F90, symSize: 0x34 }
  - { offsetInCU: 0xE29E, offset: 0x2C5A0, size: 0x8, addend: 0x0, symName: __ZNSt3__117__compressed_pairINS_15__tree_end_nodeIPNS_16__tree_node_baseIPvEEEENS_9allocatorINS_11__tree_nodeINS_12__value_typeINS_12basic_stringIcNS_11char_traitsIcEENS7_IcEEEEiEES3_EEEEE6secondB7v160006Ev, symObjAddr: 0x4D54, symBinAddr: 0x100008FC4, symSize: 0x24 }
  - { offsetInCU: 0xE2C2, offset: 0x2C5C4, size: 0x8, addend: 0x0, symName: __ZNSt3__122__compressed_pair_elemINS_9allocatorINS_11__tree_nodeINS_12__value_typeINS_12basic_stringIcNS_11char_traitsIcEENS1_IcEEEEiEEPvEEEELi1ELb1EE5__getB7v160006Ev, symObjAddr: 0x4D78, symBinAddr: 0x100008FE8, symSize: 0x14 }
  - { offsetInCU: 0xE2E6, offset: 0x2C5E8, size: 0x8, addend: 0x0, symName: __ZNSt3__112__value_typeINS_12basic_stringIcNS_11char_traitsIcEENS_9allocatorIcEEEEiE11__get_valueB7v160006Ev, symObjAddr: 0x4DD4, symBinAddr: 0x100009044, symSize: 0x24 }
  - { offsetInCU: 0xE30A, offset: 0x2C60C, size: 0x8, addend: 0x0, symName: __ZNSt3__19allocatorINS_11__tree_nodeINS_12__value_typeINS_12basic_stringIcNS_11char_traitsIcEENS0_IcEEEEiEEPvEEE10deallocateB7v160006EPSA_m, symObjAddr: 0x4E30, symBinAddr: 0x1000090A0, symSize: 0x40 }
  - { offsetInCU: 0xE34A, offset: 0x2C64C, size: 0x8, addend: 0x0, symName: __ZNKSt3__16__treeINS_12__value_typeINS_12basic_stringIcNS_11char_traitsIcEENS_9allocatorIcEEEEiEENS_19__map_value_compareIS7_S8_NS_4lessIS7_EELb1EEENS5_IS8_EEE10__end_nodeB7v160006Ev, symObjAddr: 0x4E70, symBinAddr: 0x1000090E0, symSize: 0x2C }
  - { offsetInCU: 0xE36E, offset: 0x2C670, size: 0x8, addend: 0x0, symName: __ZNKSt3__117__compressed_pairINS_15__tree_end_nodeIPNS_16__tree_node_baseIPvEEEENS_9allocatorINS_11__tree_nodeINS_12__value_typeINS_12basic_stringIcNS_11char_traitsIcEENS7_IcEEEEiEES3_EEEEE5firstB7v160006Ev, symObjAddr: 0x4E9C, symBinAddr: 0x10000910C, symSize: 0x24 }
  - { offsetInCU: 0xE392, offset: 0x2C694, size: 0x8, addend: 0x0, symName: __ZNKSt3__122__compressed_pair_elemINS_15__tree_end_nodeIPNS_16__tree_node_baseIPvEEEELi0ELb0EE5__getB7v160006Ev, symObjAddr: 0x4EC0, symBinAddr: 0x100009130, symSize: 0x14 }
  - { offsetInCU: 0xE3B6, offset: 0x2C6B8, size: 0x8, addend: 0x0, symName: __ZNKSt3__16__treeINS_12__value_typeINS_12basic_stringIcNS_11char_traitsIcEENS_9allocatorIcEEEEiEENS_19__map_value_compareIS7_S8_NS_4lessIS7_EELb1EEENS5_IS8_EEE5beginB7v160006Ev, symObjAddr: 0x4ED4, symBinAddr: 0x100009144, symSize: 0x34 }
  - { offsetInCU: 0xE3DA, offset: 0x2C6DC, size: 0x8, addend: 0x0, symName: __ZNSt3__120__map_const_iteratorINS_21__tree_const_iteratorINS_12__value_typeINS_12basic_stringIcNS_11char_traitsIcEENS_9allocatorIcEEEEiEEPNS_11__tree_nodeIS9_PvEElEEEC1B7v160006ESE_, symObjAddr: 0x4F08, symBinAddr: 0x100009178, symSize: 0x34 }
  - { offsetInCU: 0xE412, offset: 0x2C714, size: 0x8, addend: 0x0, symName: __ZNKSt3__16__treeINS_12__value_typeINS_12basic_stringIcNS_11char_traitsIcEENS_9allocatorIcEEEEiEENS_19__map_value_compareIS7_S8_NS_4lessIS7_EELb1EEENS5_IS8_EEE12__begin_nodeB7v160006Ev, symObjAddr: 0x4F3C, symBinAddr: 0x1000091AC, symSize: 0x14 }
  - { offsetInCU: 0xE436, offset: 0x2C738, size: 0x8, addend: 0x0, symName: __ZNSt3__121__tree_const_iteratorINS_12__value_typeINS_12basic_stringIcNS_11char_traitsIcEENS_9allocatorIcEEEEiEEPNS_11__tree_nodeIS8_PvEElEC1B7v160006EPNS_15__tree_end_nodeIPNS_16__tree_node_baseISA_EEEE, symObjAddr: 0x4F50, symBinAddr: 0x1000091C0, symSize: 0x34 }
  - { offsetInCU: 0xE46E, offset: 0x2C770, size: 0x8, addend: 0x0, symName: __ZNSt3__121__tree_const_iteratorINS_12__value_typeINS_12basic_stringIcNS_11char_traitsIcEENS_9allocatorIcEEEEiEEPNS_11__tree_nodeIS8_PvEElEC2B7v160006EPNS_15__tree_end_nodeIPNS_16__tree_node_baseISA_EEEE, symObjAddr: 0x4F84, symBinAddr: 0x1000091F4, symSize: 0x20 }
  - { offsetInCU: 0xE4A6, offset: 0x2C7A8, size: 0x8, addend: 0x0, symName: __ZNSt3__120__map_const_iteratorINS_21__tree_const_iteratorINS_12__value_typeINS_12basic_stringIcNS_11char_traitsIcEENS_9allocatorIcEEEEiEEPNS_11__tree_nodeIS9_PvEElEEEC2B7v160006ESE_, symObjAddr: 0x4FA4, symBinAddr: 0x100009214, symSize: 0x20 }
  - { offsetInCU: 0xE4DE, offset: 0x2C7E0, size: 0x8, addend: 0x0, symName: __ZNSt3__114pointer_traitsIPKNS_4pairIKNS_12basic_stringIcNS_11char_traitsIcEENS_9allocatorIcEEEEiEEE10pointer_toB7v160006ERSA_, symObjAddr: 0x4FC4, symBinAddr: 0x100009234, symSize: 0x14 }
  - { offsetInCU: 0xE501, offset: 0x2C803, size: 0x8, addend: 0x0, symName: __ZNKSt3__121__tree_const_iteratorINS_12__value_typeINS_12basic_stringIcNS_11char_traitsIcEENS_9allocatorIcEEEEiEEPNS_11__tree_nodeIS8_PvEElEptB7v160006Ev, symObjAddr: 0x4FD8, symBinAddr: 0x100009248, symSize: 0x2C }
  - { offsetInCU: 0xE525, offset: 0x2C827, size: 0x8, addend: 0x0, symName: __ZNKSt3__112__value_typeINS_12basic_stringIcNS_11char_traitsIcEENS_9allocatorIcEEEEiE11__get_valueB7v160006Ev, symObjAddr: 0x5004, symBinAddr: 0x100009274, symSize: 0x24 }
  - { offsetInCU: 0xE549, offset: 0x2C84B, size: 0x8, addend: 0x0, symName: __ZNSt3__114pointer_traitsIPKNS_12__value_typeINS_12basic_stringIcNS_11char_traitsIcEENS_9allocatorIcEEEEiEEE10pointer_toB7v160006ERS9_, symObjAddr: 0x5028, symBinAddr: 0x100009298, symSize: 0x14 }
  - { offsetInCU: 0xE56C, offset: 0x2C86E, size: 0x8, addend: 0x0, symName: __ZNKSt3__121__tree_const_iteratorINS_12__value_typeINS_12basic_stringIcNS_11char_traitsIcEENS_9allocatorIcEEEEiEEPNS_11__tree_nodeIS8_PvEElE8__get_npB7v160006Ev, symObjAddr: 0x503C, symBinAddr: 0x1000092AC, symSize: 0x18 }
  - { offsetInCU: 0xE5B8, offset: 0x2C8BA, size: 0x8, addend: 0x0, symName: __ZNSt3__16__treeINS_12__value_typeINS_12basic_stringIcNS_11char_traitsIcEENS_9allocatorIcEEEEiEENS_19__map_value_compareIS7_S8_NS_4lessIS7_EELb1EEENS5_IS8_EEE15__insert_uniqueB7v160006EONS_4pairIKS7_iEE, symObjAddr: 0x58E0, symBinAddr: 0x1000092FC, symSize: 0x50 }
  - { offsetInCU: 0xE5EB, offset: 0x2C8ED, size: 0x8, addend: 0x0, symName: __ZNSt3__14pairINS_14__map_iteratorINS_15__tree_iteratorINS_12__value_typeINS_12basic_stringIcNS_11char_traitsIcEENS_9allocatorIcEEEEiEEPNS_11__tree_nodeISA_PvEElEEEEbEC1B7v160006ISF_bLSC_0EEEONS0_IT_T0_EE, symObjAddr: 0x5930, symBinAddr: 0x10000934C, symSize: 0x34 }
  - { offsetInCU: 0xE63C, offset: 0x2C93E, size: 0x8, addend: 0x0, symName: __ZNSt3__16__treeINS_12__value_typeINS_12basic_stringIcNS_11char_traitsIcEENS_9allocatorIcEEEEiEENS_19__map_value_compareIS7_S8_NS_4lessIS7_EELb1EEENS5_IS8_EEE25__emplace_unique_key_argsIS7_JNS_4pairIKS7_iEEEEENSG_INS_15__tree_iteratorIS8_PNS_11__tree_nodeIS8_PvEElEEbEERKT_DpOT0_, symObjAddr: 0x5964, symBinAddr: 0x100009380, symSize: 0xF0 }
  - { offsetInCU: 0xE6E8, offset: 0x2C9EA, size: 0x8, addend: 0x0, symName: __ZNSt3__122__tree_key_value_typesINS_12__value_typeINS_12basic_stringIcNS_11char_traitsIcEENS_9allocatorIcEEEEiEEE9__get_keyB7v160006INS_4pairIKS7_iEEEENS_9enable_ifIXsr17__is_same_uncvrefIT_SD_EE5valueERSC_E4typeERSF_, symObjAddr: 0x5A54, symBinAddr: 0x100009470, symSize: 0x14 }
  - { offsetInCU: 0xE715, offset: 0x2CA17, size: 0x8, addend: 0x0, symName: __ZNSt3__16__treeINS_12__value_typeINS_12basic_stringIcNS_11char_traitsIcEENS_9allocatorIcEEEEiEENS_19__map_value_compareIS7_S8_NS_4lessIS7_EELb1EEENS5_IS8_EEE12__find_equalIS7_EERPNS_16__tree_node_baseIPvEERPNS_15__tree_end_nodeISJ_EERKT_, symObjAddr: 0x5A68, symBinAddr: 0x100009484, symSize: 0x184 }
  - { offsetInCU: 0xE780, offset: 0x2CA82, size: 0x8, addend: 0x0, symName: __ZNSt3__16__treeINS_12__value_typeINS_12basic_stringIcNS_11char_traitsIcEENS_9allocatorIcEEEEiEENS_19__map_value_compareIS7_S8_NS_4lessIS7_EELb1EEENS5_IS8_EEE16__construct_nodeIJNS_4pairIKS7_iEEEEENS_10unique_ptrINS_11__tree_nodeIS8_PvEENS_22__tree_node_destructorINS5_ISM_EEEEEEDpOT_, symObjAddr: 0x5BEC, symBinAddr: 0x100009608, symSize: 0x110 }
  - { offsetInCU: 0xE7E1, offset: 0x2CAE3, size: 0x8, addend: 0x0, symName: __ZNSt3__16__treeINS_12__value_typeINS_12basic_stringIcNS_11char_traitsIcEENS_9allocatorIcEEEEiEENS_19__map_value_compareIS7_S8_NS_4lessIS7_EELb1EEENS5_IS8_EEE16__insert_node_atEPNS_15__tree_end_nodeIPNS_16__tree_node_baseIPvEEEERSJ_SJ_, symObjAddr: 0x5CFC, symBinAddr: 0x100009718, symSize: 0xCC }
  - { offsetInCU: 0xE834, offset: 0x2CB36, size: 0x8, addend: 0x0, symName: __ZNKSt3__110unique_ptrINS_11__tree_nodeINS_12__value_typeINS_12basic_stringIcNS_11char_traitsIcEENS_9allocatorIcEEEEiEEPvEENS_22__tree_node_destructorINS6_ISB_EEEEE3getB7v160006Ev, symObjAddr: 0x5DC8, symBinAddr: 0x1000097E4, symSize: 0x28 }
  - { offsetInCU: 0xE858, offset: 0x2CB5A, size: 0x8, addend: 0x0, symName: __ZNSt3__110unique_ptrINS_11__tree_nodeINS_12__value_typeINS_12basic_stringIcNS_11char_traitsIcEENS_9allocatorIcEEEEiEEPvEENS_22__tree_node_destructorINS6_ISB_EEEEE7releaseB7v160006Ev, symObjAddr: 0x5DF0, symBinAddr: 0x10000980C, symSize: 0x44 }
  - { offsetInCU: 0xE88B, offset: 0x2CB8D, size: 0x8, addend: 0x0, symName: __ZNSt3__110unique_ptrINS_11__tree_nodeINS_12__value_typeINS_12basic_stringIcNS_11char_traitsIcEENS_9allocatorIcEEEEiEEPvEENS_22__tree_node_destructorINS6_ISB_EEEEED1B7v160006Ev, symObjAddr: 0x5E34, symBinAddr: 0x100009850, symSize: 0x2C }
  - { offsetInCU: 0xE8B4, offset: 0x2CBB6, size: 0x8, addend: 0x0, symName: __ZNSt3__115__tree_iteratorINS_12__value_typeINS_12basic_stringIcNS_11char_traitsIcEENS_9allocatorIcEEEEiEEPNS_11__tree_nodeIS8_PvEElEC1B7v160006ESC_, symObjAddr: 0x5E60, symBinAddr: 0x10000987C, symSize: 0x34 }
  - { offsetInCU: 0xE8F1, offset: 0x2CBF3, size: 0x8, addend: 0x0, symName: __ZNSt3__14pairINS_15__tree_iteratorINS_12__value_typeINS_12basic_stringIcNS_11char_traitsIcEENS_9allocatorIcEEEEiEEPNS_11__tree_nodeIS9_PvEElEEbEC1B7v160006ISE_RbLSB_0EEEOT_OT0_, symObjAddr: 0x5E94, symBinAddr: 0x1000098B0, symSize: 0x3C }
  - { offsetInCU: 0xE94F, offset: 0x2CC51, size: 0x8, addend: 0x0, symName: __ZNKSt3__16__treeINS_12__value_typeINS_12basic_stringIcNS_11char_traitsIcEENS_9allocatorIcEEEEiEENS_19__map_value_compareIS7_S8_NS_4lessIS7_EELb1EEENS5_IS8_EEE10__root_ptrEv, symObjAddr: 0x5ED0, symBinAddr: 0x1000098EC, symSize: 0x24 }
  - { offsetInCU: 0xE973, offset: 0x2CC75, size: 0x8, addend: 0x0, symName: __ZNSt3__16__treeINS_12__value_typeINS_12basic_stringIcNS_11char_traitsIcEENS_9allocatorIcEEEEiEENS_19__map_value_compareIS7_S8_NS_4lessIS7_EELb1EEENS5_IS8_EEE10value_compB7v160006Ev, symObjAddr: 0x5EF4, symBinAddr: 0x100009910, symSize: 0x28 }
  - { offsetInCU: 0xE997, offset: 0x2CC99, size: 0x8, addend: 0x0, symName: __ZNKSt3__119__map_value_compareINS_12basic_stringIcNS_11char_traitsIcEENS_9allocatorIcEEEENS_12__value_typeIS6_iEENS_4lessIS6_EELb1EEclB7v160006ERKS6_RKS8_, symObjAddr: 0x5F1C, symBinAddr: 0x100009938, symSize: 0x50 }
  - { offsetInCU: 0xE9D9, offset: 0x2CCDB, size: 0x8, addend: 0x0, symName: __ZNKSt3__119__map_value_compareINS_12basic_stringIcNS_11char_traitsIcEENS_9allocatorIcEEEENS_12__value_typeIS6_iEENS_4lessIS6_EELb1EEclB7v160006ERKS8_RKS6_, symObjAddr: 0x5F6C, symBinAddr: 0x100009988, symSize: 0x48 }
  - { offsetInCU: 0xEA1B, offset: 0x2CD1D, size: 0x8, addend: 0x0, symName: __ZNSt3__117__compressed_pairImNS_19__map_value_compareINS_12basic_stringIcNS_11char_traitsIcEENS_9allocatorIcEEEENS_12__value_typeIS7_iEENS_4lessIS7_EELb1EEEE6secondB7v160006Ev, symObjAddr: 0x5FB4, symBinAddr: 0x1000099D0, symSize: 0x24 }
  - { offsetInCU: 0xEA3F, offset: 0x2CD41, size: 0x8, addend: 0x0, symName: __ZNSt3__122__compressed_pair_elemINS_19__map_value_compareINS_12basic_stringIcNS_11char_traitsIcEENS_9allocatorIcEEEENS_12__value_typeIS7_iEENS_4lessIS7_EELb1EEELi1ELb1EE5__getB7v160006Ev, symObjAddr: 0x5FD8, symBinAddr: 0x1000099F4, symSize: 0x14 }
  - { offsetInCU: 0xEA63, offset: 0x2CD65, size: 0x8, addend: 0x0, symName: __ZNKSt3__14lessINS_12basic_stringIcNS_11char_traitsIcEENS_9allocatorIcEEEEEclB7v160006ERKS6_S9_, symObjAddr: 0x5FEC, symBinAddr: 0x100009A08, symSize: 0x50 }
  - { offsetInCU: 0xEAA5, offset: 0x2CDA7, size: 0x8, addend: 0x0, symName: __ZNSt3__116allocator_traitsINS_9allocatorINS_11__tree_nodeINS_12__value_typeINS_12basic_stringIcNS_11char_traitsIcEENS1_IcEEEEiEEPvEEEEE8allocateB7v160006ERSC_m, symObjAddr: 0x603C, symBinAddr: 0x100009A58, symSize: 0x2C }
  - { offsetInCU: 0xEAD8, offset: 0x2CDDA, size: 0x8, addend: 0x0, symName: __ZNSt3__122__tree_node_destructorINS_9allocatorINS_11__tree_nodeINS_12__value_typeINS_12basic_stringIcNS_11char_traitsIcEENS1_IcEEEEiEEPvEEEEEC1B7v160006ERSC_b, symObjAddr: 0x6068, symBinAddr: 0x100009A84, symSize: 0x48 }
  - { offsetInCU: 0xEB24, offset: 0x2CE26, size: 0x8, addend: 0x0, symName: __ZNSt3__110unique_ptrINS_11__tree_nodeINS_12__value_typeINS_12basic_stringIcNS_11char_traitsIcEENS_9allocatorIcEEEEiEEPvEENS_22__tree_node_destructorINS6_ISB_EEEEEC1B7v160006ILb1EvEEPSB_NS_16__dependent_typeINS_27__unique_ptr_deleter_sfinaeISE_EEXT_EE20__good_rval_ref_typeE, symObjAddr: 0x60B0, symBinAddr: 0x100009ACC, symSize: 0x3C }
  - { offsetInCU: 0xEB75, offset: 0x2CE77, size: 0x8, addend: 0x0, symName: __ZNSt3__116allocator_traitsINS_9allocatorINS_11__tree_nodeINS_12__value_typeINS_12basic_stringIcNS_11char_traitsIcEENS1_IcEEEEiEEPvEEEEE9constructB7v160006INS_4pairIKS8_iEEJSH_EvvEEvRSC_PT_DpOT0_, symObjAddr: 0x60EC, symBinAddr: 0x100009B08, symSize: 0x30 }
  - { offsetInCU: 0xEBCE, offset: 0x2CED0, size: 0x8, addend: 0x0, symName: __ZNKSt3__110unique_ptrINS_11__tree_nodeINS_12__value_typeINS_12basic_stringIcNS_11char_traitsIcEENS_9allocatorIcEEEEiEEPvEENS_22__tree_node_destructorINS6_ISB_EEEEEptB7v160006Ev, symObjAddr: 0x611C, symBinAddr: 0x100009B38, symSize: 0x28 }
  - { offsetInCU: 0xEBF2, offset: 0x2CEF4, size: 0x8, addend: 0x0, symName: __ZNSt3__110unique_ptrINS_11__tree_nodeINS_12__value_typeINS_12basic_stringIcNS_11char_traitsIcEENS_9allocatorIcEEEEiEEPvEENS_22__tree_node_destructorINS6_ISB_EEEEE11get_deleterB7v160006Ev, symObjAddr: 0x6144, symBinAddr: 0x100009B60, symSize: 0x24 }
  - { offsetInCU: 0xEC16, offset: 0x2CF18, size: 0x8, addend: 0x0, symName: __ZNSt3__19allocatorINS_11__tree_nodeINS_12__value_typeINS_12basic_stringIcNS_11char_traitsIcEENS0_IcEEEEiEEPvEEE8allocateB7v160006Em, symObjAddr: 0x6168, symBinAddr: 0x100009B84, symSize: 0x58 }
  - { offsetInCU: 0xEC52, offset: 0x2CF54, size: 0x8, addend: 0x0, symName: __ZNSt3__116allocator_traitsINS_9allocatorINS_11__tree_nodeINS_12__value_typeINS_12basic_stringIcNS_11char_traitsIcEENS1_IcEEEEiEEPvEEEEE8max_sizeB7v160006ISC_vvEEmRKSC_, symObjAddr: 0x61C0, symBinAddr: 0x100009BDC, symSize: 0x28 }
  - { offsetInCU: 0xEC80, offset: 0x2CF82, size: 0x8, addend: 0x0, symName: __ZNSt3__122__tree_node_destructorINS_9allocatorINS_11__tree_nodeINS_12__value_typeINS_12basic_stringIcNS_11char_traitsIcEENS1_IcEEEEiEEPvEEEEEC2B7v160006ERSC_b, symObjAddr: 0x61E8, symBinAddr: 0x100009C04, symSize: 0x38 }
  - { offsetInCU: 0xECC7, offset: 0x2CFC9, size: 0x8, addend: 0x0, symName: __ZNSt3__110unique_ptrINS_11__tree_nodeINS_12__value_typeINS_12basic_stringIcNS_11char_traitsIcEENS_9allocatorIcEEEEiEEPvEENS_22__tree_node_destructorINS6_ISB_EEEEEC2B7v160006ILb1EvEEPSB_NS_16__dependent_typeINS_27__unique_ptr_deleter_sfinaeISE_EEXT_EE20__good_rval_ref_typeE, symObjAddr: 0x6220, symBinAddr: 0x100009C3C, symSize: 0x48 }
  - { offsetInCU: 0xED18, offset: 0x2D01A, size: 0x8, addend: 0x0, symName: __ZNSt3__117__compressed_pairIPNS_11__tree_nodeINS_12__value_typeINS_12basic_stringIcNS_11char_traitsIcEENS_9allocatorIcEEEEiEEPvEENS_22__tree_node_destructorINS6_ISB_EEEEEC1B7v160006IRSC_SF_EEOT_OT0_, symObjAddr: 0x6268, symBinAddr: 0x100009C84, symSize: 0x3C }
  - { offsetInCU: 0xED6F, offset: 0x2D071, size: 0x8, addend: 0x0, symName: __ZNSt3__117__compressed_pairIPNS_11__tree_nodeINS_12__value_typeINS_12basic_stringIcNS_11char_traitsIcEENS_9allocatorIcEEEEiEEPvEENS_22__tree_node_destructorINS6_ISB_EEEEEC2B7v160006IRSC_SF_EEOT_OT0_, symObjAddr: 0x62A4, symBinAddr: 0x100009CC0, symSize: 0x48 }
  - { offsetInCU: 0xEDC6, offset: 0x2D0C8, size: 0x8, addend: 0x0, symName: __ZNSt3__122__compressed_pair_elemIPNS_11__tree_nodeINS_12__value_typeINS_12basic_stringIcNS_11char_traitsIcEENS_9allocatorIcEEEEiEEPvEELi0ELb0EEC2B7v160006IRSC_vEEOT_, symObjAddr: 0x62EC, symBinAddr: 0x100009D08, symSize: 0x24 }
  - { offsetInCU: 0xEE08, offset: 0x2D10A, size: 0x8, addend: 0x0, symName: __ZNSt3__122__compressed_pair_elemINS_22__tree_node_destructorINS_9allocatorINS_11__tree_nodeINS_12__value_typeINS_12basic_stringIcNS_11char_traitsIcEENS2_IcEEEEiEEPvEEEEEELi1ELb0EEC2B7v160006ISE_vEEOT_, symObjAddr: 0x6310, symBinAddr: 0x100009D2C, symSize: 0x24 }
  - { offsetInCU: 0xEE4A, offset: 0x2D14C, size: 0x8, addend: 0x0, symName: __ZNSt3__14pairIKNS_12basic_stringIcNS_11char_traitsIcEENS_9allocatorIcEEEEiEC1EOS8_, symObjAddr: 0x6370, symBinAddr: 0x100009D8C, symSize: 0x34 }
  - { offsetInCU: 0xEE7E, offset: 0x2D180, size: 0x8, addend: 0x0, symName: __ZNSt3__14pairIKNS_12basic_stringIcNS_11char_traitsIcEENS_9allocatorIcEEEEiEC2EOS8_, symObjAddr: 0x63A4, symBinAddr: 0x100009DC0, symSize: 0x40 }
  - { offsetInCU: 0xEEB2, offset: 0x2D1B4, size: 0x8, addend: 0x0, symName: __ZNKSt3__117__compressed_pairIPNS_11__tree_nodeINS_12__value_typeINS_12basic_stringIcNS_11char_traitsIcEENS_9allocatorIcEEEEiEEPvEENS_22__tree_node_destructorINS6_ISB_EEEEE5firstB7v160006Ev, symObjAddr: 0x63E4, symBinAddr: 0x100009E00, symSize: 0x24 }
  - { offsetInCU: 0xEED6, offset: 0x2D1D8, size: 0x8, addend: 0x0, symName: __ZNKSt3__122__compressed_pair_elemIPNS_11__tree_nodeINS_12__value_typeINS_12basic_stringIcNS_11char_traitsIcEENS_9allocatorIcEEEEiEEPvEELi0ELb0EE5__getB7v160006Ev, symObjAddr: 0x6408, symBinAddr: 0x100009E24, symSize: 0x14 }
  - { offsetInCU: 0xEEFA, offset: 0x2D1FC, size: 0x8, addend: 0x0, symName: __ZNSt3__117__compressed_pairIPNS_11__tree_nodeINS_12__value_typeINS_12basic_stringIcNS_11char_traitsIcEENS_9allocatorIcEEEEiEEPvEENS_22__tree_node_destructorINS6_ISB_EEEEE6secondB7v160006Ev, symObjAddr: 0x641C, symBinAddr: 0x100009E38, symSize: 0x28 }
  - { offsetInCU: 0xEF1E, offset: 0x2D220, size: 0x8, addend: 0x0, symName: __ZNSt3__122__compressed_pair_elemINS_22__tree_node_destructorINS_9allocatorINS_11__tree_nodeINS_12__value_typeINS_12basic_stringIcNS_11char_traitsIcEENS2_IcEEEEiEEPvEEEEEELi1ELb0EE5__getB7v160006Ev, symObjAddr: 0x6444, symBinAddr: 0x100009E60, symSize: 0x14 }
  - { offsetInCU: 0xEF42, offset: 0x2D244, size: 0x8, addend: 0x0, symName: __ZNSt3__16__treeINS_12__value_typeINS_12basic_stringIcNS_11char_traitsIcEENS_9allocatorIcEEEEiEENS_19__map_value_compareIS7_S8_NS_4lessIS7_EELb1EEENS5_IS8_EEE4sizeB7v160006Ev, symObjAddr: 0x6784, symBinAddr: 0x10000A1A0, symSize: 0x28 }
  - { offsetInCU: 0xEF66, offset: 0x2D268, size: 0x8, addend: 0x0, symName: __ZNKSt3__116__tree_node_baseIPvE15__parent_unsafeB7v160006Ev, symObjAddr: 0x67AC, symBinAddr: 0x10000A1C8, symSize: 0x18 }
  - { offsetInCU: 0xEF8A, offset: 0x2D28C, size: 0x8, addend: 0x0, symName: __ZNSt3__116__tree_node_baseIPvE12__set_parentB7v160006EPS2_, symObjAddr: 0x6994, symBinAddr: 0x10000A3B0, symSize: 0x20 }
  - { offsetInCU: 0xEFBD, offset: 0x2D2BF, size: 0x8, addend: 0x0, symName: __ZNSt3__117__compressed_pairImNS_19__map_value_compareINS_12basic_stringIcNS_11char_traitsIcEENS_9allocatorIcEEEENS_12__value_typeIS7_iEENS_4lessIS7_EELb1EEEE5firstB7v160006Ev, symObjAddr: 0x69B4, symBinAddr: 0x10000A3D0, symSize: 0x24 }
  - { offsetInCU: 0xEFE1, offset: 0x2D2E3, size: 0x8, addend: 0x0, symName: __ZNSt3__122__compressed_pair_elemImLi0ELb0EE5__getB7v160006Ev, symObjAddr: 0x69D8, symBinAddr: 0x10000A3F4, symSize: 0x14 }
  - { offsetInCU: 0xF005, offset: 0x2D307, size: 0x8, addend: 0x0, symName: __ZNSt3__117__compressed_pairIPNS_11__tree_nodeINS_12__value_typeINS_12basic_stringIcNS_11char_traitsIcEENS_9allocatorIcEEEEiEEPvEENS_22__tree_node_destructorINS6_ISB_EEEEE5firstB7v160006Ev, symObjAddr: 0x69EC, symBinAddr: 0x10000A408, symSize: 0x24 }
  - { offsetInCU: 0xF029, offset: 0x2D32B, size: 0x8, addend: 0x0, symName: __ZNSt3__122__compressed_pair_elemIPNS_11__tree_nodeINS_12__value_typeINS_12basic_stringIcNS_11char_traitsIcEENS_9allocatorIcEEEEiEEPvEELi0ELb0EE5__getB7v160006Ev, symObjAddr: 0x6A10, symBinAddr: 0x10000A42C, symSize: 0x14 }
  - { offsetInCU: 0xF04D, offset: 0x2D34F, size: 0x8, addend: 0x0, symName: __ZNSt3__110unique_ptrINS_11__tree_nodeINS_12__value_typeINS_12basic_stringIcNS_11char_traitsIcEENS_9allocatorIcEEEEiEEPvEENS_22__tree_node_destructorINS6_ISB_EEEEED2B7v160006Ev, symObjAddr: 0x6A24, symBinAddr: 0x10000A440, symSize: 0x30 }
  - { offsetInCU: 0xF076, offset: 0x2D378, size: 0x8, addend: 0x0, symName: __ZNSt3__110unique_ptrINS_11__tree_nodeINS_12__value_typeINS_12basic_stringIcNS_11char_traitsIcEENS_9allocatorIcEEEEiEEPvEENS_22__tree_node_destructorINS6_ISB_EEEEE5resetB7v160006EPSB_, symObjAddr: 0x6A54, symBinAddr: 0x10000A470, symSize: 0x78 }
  - { offsetInCU: 0xF0B8, offset: 0x2D3BA, size: 0x8, addend: 0x0, symName: __ZNSt3__122__tree_node_destructorINS_9allocatorINS_11__tree_nodeINS_12__value_typeINS_12basic_stringIcNS_11char_traitsIcEENS1_IcEEEEiEEPvEEEEEclB7v160006EPSB_, symObjAddr: 0x6ACC, symBinAddr: 0x10000A4E8, symSize: 0x98 }
  - { offsetInCU: 0xF0EB, offset: 0x2D3ED, size: 0x8, addend: 0x0, symName: __ZNSt3__115__tree_iteratorINS_12__value_typeINS_12basic_stringIcNS_11char_traitsIcEENS_9allocatorIcEEEEiEEPNS_11__tree_nodeIS8_PvEElEC2B7v160006ESC_, symObjAddr: 0x6B64, symBinAddr: 0x10000A580, symSize: 0x20 }
  - { offsetInCU: 0xF123, offset: 0x2D425, size: 0x8, addend: 0x0, symName: __ZNSt3__14pairINS_15__tree_iteratorINS_12__value_typeINS_12basic_stringIcNS_11char_traitsIcEENS_9allocatorIcEEEEiEEPNS_11__tree_nodeIS9_PvEElEEbEC2B7v160006ISE_RbLSB_0EEEOT_OT0_, symObjAddr: 0x6B84, symBinAddr: 0x10000A5A0, symSize: 0x38 }
  - { offsetInCU: 0xF181, offset: 0x2D483, size: 0x8, addend: 0x0, symName: __ZNSt3__14pairINS_14__map_iteratorINS_15__tree_iteratorINS_12__value_typeINS_12basic_stringIcNS_11char_traitsIcEENS_9allocatorIcEEEEiEEPNS_11__tree_nodeISA_PvEElEEEEbEC2B7v160006ISF_bLSC_0EEEONS0_IT_T0_EE, symObjAddr: 0x6BBC, symBinAddr: 0x10000A5D8, symSize: 0x50 }
  - { offsetInCU: 0xF1D2, offset: 0x2D4D4, size: 0x8, addend: 0x0, symName: __ZNSt3__114__map_iteratorINS_15__tree_iteratorINS_12__value_typeINS_12basic_stringIcNS_11char_traitsIcEENS_9allocatorIcEEEEiEEPNS_11__tree_nodeIS9_PvEElEEEC1B7v160006ESE_, symObjAddr: 0x6C0C, symBinAddr: 0x10000A628, symSize: 0x34 }
  - { offsetInCU: 0xF20A, offset: 0x2D50C, size: 0x8, addend: 0x0, symName: __ZNSt3__114__map_iteratorINS_15__tree_iteratorINS_12__value_typeINS_12basic_stringIcNS_11char_traitsIcEENS_9allocatorIcEEEEiEEPNS_11__tree_nodeIS9_PvEElEEEC2B7v160006ESE_, symObjAddr: 0x6C40, symBinAddr: 0x10000A65C, symSize: 0x20 }
  - { offsetInCU: 0xF242, offset: 0x2D544, size: 0x8, addend: 0x0, symName: __ZNSt3__16__treeINS_12__value_typeINS_12basic_stringIcNS_11char_traitsIcEENS_9allocatorIcEEEEiEENS_19__map_value_compareIS7_S8_NS_4lessIS7_EELb1EEENS5_IS8_EEE4findIS7_EENS_15__tree_iteratorIS8_PNS_11__tree_nodeIS8_PvEElEERKT_, symObjAddr: 0x6C60, symBinAddr: 0x10000A67C, symSize: 0xF8 }
  - { offsetInCU: 0xF28F, offset: 0x2D591, size: 0x8, addend: 0x0, symName: __ZNSt3__16__treeINS_12__value_typeINS_12basic_stringIcNS_11char_traitsIcEENS_9allocatorIcEEEEiEENS_19__map_value_compareIS7_S8_NS_4lessIS7_EELb1EEENS5_IS8_EEE13__lower_boundIS7_EENS_15__tree_iteratorIS8_PNS_11__tree_nodeIS8_PvEElEERKT_SK_PNS_15__tree_end_nodeIPNS_16__tree_node_baseISI_EEEE, symObjAddr: 0x6D58, symBinAddr: 0x10000A774, symSize: 0xA4 }
  - { offsetInCU: 0xF2EB, offset: 0x2D5ED, size: 0x8, addend: 0x0, symName: __ZNSt3__16__treeINS_12__value_typeINS_12basic_stringIcNS_11char_traitsIcEENS_9allocatorIcEEEEiEENS_19__map_value_compareIS7_S8_NS_4lessIS7_EELb1EEENS5_IS8_EEE3endB7v160006Ev, symObjAddr: 0x6E30, symBinAddr: 0x10000A84C, symSize: 0x34 }
  - { offsetInCU: 0xF30F, offset: 0x2D611, size: 0x8, addend: 0x0, symName: __ZNKSt3__115__tree_iteratorINS_12__value_typeINS_12basic_stringIcNS_11char_traitsIcEENS_9allocatorIcEEEEiEEPNS_11__tree_nodeIS8_PvEElEdeB7v160006Ev, symObjAddr: 0x6E64, symBinAddr: 0x10000A880, symSize: 0x28 }
  - { offsetInCU: 0xF333, offset: 0x2D635, size: 0x8, addend: 0x0, symName: __ZNSt3__115__tree_iteratorINS_12__value_typeINS_12basic_stringIcNS_11char_traitsIcEENS_9allocatorIcEEEEiEEPNS_11__tree_nodeIS8_PvEElEC1B7v160006EPNS_15__tree_end_nodeIPNS_16__tree_node_baseISA_EEEE, symObjAddr: 0x6E8C, symBinAddr: 0x10000A8A8, symSize: 0x34 }
  - { offsetInCU: 0xF36B, offset: 0x2D66D, size: 0x8, addend: 0x0, symName: __ZNSt3__115__tree_iteratorINS_12__value_typeINS_12basic_stringIcNS_11char_traitsIcEENS_9allocatorIcEEEEiEEPNS_11__tree_nodeIS8_PvEElEC2B7v160006EPNS_15__tree_end_nodeIPNS_16__tree_node_baseISA_EEEE, symObjAddr: 0x6EC0, symBinAddr: 0x10000A8DC, symSize: 0x20 }
  - { offsetInCU: 0xF3A3, offset: 0x2D6A5, size: 0x8, addend: 0x0, symName: __ZNKSt3__115__tree_iteratorINS_12__value_typeINS_12basic_stringIcNS_11char_traitsIcEENS_9allocatorIcEEEEiEEPNS_11__tree_nodeIS8_PvEElE8__get_npB7v160006Ev, symObjAddr: 0x6F10, symBinAddr: 0x10000A92C, symSize: 0x18 }
  - { offsetInCU: 0xF3C7, offset: 0x2D6C9, size: 0x8, addend: 0x0, symName: __ZNSt12out_of_rangeC1B7v160006EPKc, symObjAddr: 0x6F8C, symBinAddr: 0x10000A9A8, symSize: 0x34 }
  - { offsetInCU: 0xF3FE, offset: 0x2D700, size: 0x8, addend: 0x0, symName: __ZNSt12out_of_rangeC2B7v160006EPKc, symObjAddr: 0x6FC0, symBinAddr: 0x10000A9DC, symSize: 0x4C }
  - { offsetInCU: 0xF435, offset: 0x2D737, size: 0x8, addend: 0x0, symName: __ZNKSt3__16__treeINS_12__value_typeINS_12basic_stringIcNS_11char_traitsIcEENS_9allocatorIcEEEEiEENS_19__map_value_compareIS7_S8_NS_4lessIS7_EELb1EEENS5_IS8_EEE3endB7v160006Ev, symObjAddr: 0x700C, symBinAddr: 0x10000AA28, symSize: 0x34 }
  - { offsetInCU: 0xF459, offset: 0x2D75B, size: 0x8, addend: 0x0, symName: __ZNSt3__121__tree_const_iteratorINS_12__value_typeINS_12basic_stringIcNS_11char_traitsIcEENS_9allocatorIcEEEEiEEPNS_11__tree_nodeIS8_PvEElEppB7v160006Ev, symObjAddr: 0x70A4, symBinAddr: 0x10000AAC0, symSize: 0x38 }
  - { offsetInCU: 0xF49B, offset: 0x2D79D, size: 0x8, addend: 0x0, symName: __ZNSt3__114numeric_limitsIlE3maxB7v160006Ev, symObjAddr: 0x7240, symBinAddr: 0x10000ABB8, symSize: 0x14 }
  - { offsetInCU: 0xF4AF, offset: 0x2D7B1, size: 0x8, addend: 0x0, symName: __ZNSt3__115basic_streambufIcNS_11char_traitsIcEEE5sgetcB7v160006Ev, symObjAddr: 0x7254, symBinAddr: 0x10000ABCC, symSize: 0x70 }
  - { offsetInCU: 0xF4D3, offset: 0x2D7D5, size: 0x8, addend: 0x0, symName: __ZNKSt3__15ctypeIcE2isB7v160006Ejc, symObjAddr: 0x72DC, symBinAddr: 0x10000AC3C, symSize: 0x7C }
  - { offsetInCU: 0xF515, offset: 0x2D817, size: 0x8, addend: 0x0, symName: __ZNSt3__123__libcpp_numeric_limitsIlLb1EE3maxB7v160006Ev, symObjAddr: 0x7468, symBinAddr: 0x10000ACB8, symSize: 0x8 }
  - { offsetInCU: 0xF528, offset: 0x2D82A, size: 0x8, addend: 0x0, symName: __Z7isasciii, symObjAddr: 0x7484, symBinAddr: 0x10000ACC0, symSize: 0x24 }
  - { offsetInCU: 0xF556, offset: 0x2D858, size: 0x8, addend: 0x0, symName: __ZNSt3__18__iom_t4IcEC1B7v160006Ec, symObjAddr: 0x74C0, symBinAddr: 0x10000ACE4, symSize: 0x34 }
  - { offsetInCU: 0xF58D, offset: 0x2D88F, size: 0x8, addend: 0x0, symName: __ZNSt3__18__iom_t4IcEC2B7v160006Ec, symObjAddr: 0x74F4, symBinAddr: 0x10000AD18, symSize: 0x20 }
  - { offsetInCU: 0xF5C4, offset: 0x2D8C6, size: 0x8, addend: 0x0, symName: __ZNSt3__19basic_iosIcNS_11char_traitsIcEEE4fillB7v160006Ec, symObjAddr: 0x7514, symBinAddr: 0x10000AD38, symSize: 0x74 }
  - { offsetInCU: 0x6D78, offset: 0x347AD, size: 0x8, addend: 0x0, symName: __ZN6ComedyC2Ev, symObjAddr: 0x0, symBinAddr: 0x10000ADAC, symSize: 0xA4 }
  - { offsetInCU: 0x6DA2, offset: 0x347D7, size: 0x8, addend: 0x0, symName: __ZN6ComedyC1Ev, symObjAddr: 0xD0, symBinAddr: 0x10000AE50, symSize: 0x2C }
  - { offsetInCU: 0x6DCC, offset: 0x34801, size: 0x8, addend: 0x0, symName: __ZN6ComedyD2Ev, symObjAddr: 0xFC, symBinAddr: 0x10000AE7C, symSize: 0x2C }
  - { offsetInCU: 0x6DF6, offset: 0x3482B, size: 0x8, addend: 0x0, symName: __ZN6ComedyD1Ev, symObjAddr: 0x128, symBinAddr: 0x10000AEA8, symSize: 0x2C }
  - { offsetInCU: 0x6E20, offset: 0x34855, size: 0x8, addend: 0x0, symName: __ZN6ComedyD0Ev, symObjAddr: 0x154, symBinAddr: 0x10000AED4, symSize: 0x30 }
  - { offsetInCU: 0x6E4B, offset: 0x34880, size: 0x8, addend: 0x0, symName: __ZN6Comedy7setDataERNSt3__118basic_stringstreamIcNS0_11char_traitsIcEENS0_9allocatorIcEEEE, symObjAddr: 0x184, symBinAddr: 0x10000AF04, symSize: 0x6C }
  - { offsetInCU: 0x6E7F, offset: 0x348B4, size: 0x8, addend: 0x0, symName: __ZNK6Comedy11PrintHeaderEv, symObjAddr: 0x1F0, symBinAddr: 0x10000AF70, symSize: 0x158 }
  - { offsetInCU: 0x6EA4, offset: 0x348D9, size: 0x8, addend: 0x0, symName: __ZlsRNSt3__113basic_ostreamIcNS_11char_traitsIcEEEERK6Comedy, symObjAddr: 0x4F0, symBinAddr: 0x10000B0C8, symSize: 0x38 }
  - { offsetInCU: 0x6EDF, offset: 0x34914, size: 0x8, addend: 0x0, symName: __ZNK6ComedyltERK5Media, symObjAddr: 0x528, symBinAddr: 0x10000B100, symSize: 0x1F0 }
  - { offsetInCU: 0x6F26, offset: 0x3495B, size: 0x8, addend: 0x0, symName: __ZN6ComedyC1ERKS_, symObjAddr: 0x718, symBinAddr: 0x10000B2F0, symSize: 0x34 }
  - { offsetInCU: 0x6F5A, offset: 0x3498F, size: 0x8, addend: 0x0, symName: __ZNK6ComedygtERK5Media, symObjAddr: 0x948, symBinAddr: 0x10000B324, symSize: 0x78 }
  - { offsetInCU: 0x6F8E, offset: 0x349C3, size: 0x8, addend: 0x0, symName: __ZNK6ComedyeqERK5Media, symObjAddr: 0x9C0, symBinAddr: 0x10000B39C, symSize: 0x15C }
  - { offsetInCU: 0x6FD1, offset: 0x34A06, size: 0x8, addend: 0x0, symName: __ZNK6Comedy7DisplayERNSt3__113basic_ostreamIcNS0_11char_traitsIcEEEE, symObjAddr: 0xB1C, symBinAddr: 0x10000B4F8, symSize: 0x234 }
  - { offsetInCU: 0x7004, offset: 0x34A39, size: 0x8, addend: 0x0, symName: __ZN6ComedyC2ERKS_, symObjAddr: 0xEA8, symBinAddr: 0x10000B72C, symSize: 0x4C }
  - { offsetInCU: 0x703C, offset: 0x34A71, size: 0x8, addend: 0x0, symName: __ZN5MovieC2ERKS_, symObjAddr: 0xEF4, symBinAddr: 0x10000B778, symSize: 0xD8 }
  - { offsetInCU: 0x7070, offset: 0x34AA5, size: 0x8, addend: 0x0, symName: __ZN5MediaC2ERKS_, symObjAddr: 0xFCC, symBinAddr: 0x10000B850, symSize: 0x3C }
  - { offsetInCU: 0x5DE2, offset: 0x3A8EB, size: 0x8, addend: 0x0, symName: __ZNSt3__17advanceB7v160006IPNS_12basic_stringIcNS_11char_traitsIcEENS_9allocatorIcEEEEmmvEEvRT_T0_, symObjAddr: 0x1F20, symBinAddr: 0x10000D340, symSize: 0x50 }
  - { offsetInCU: 0x61E6, offset: 0x3ACEF, size: 0x8, addend: 0x0, symName: __ZNSt3__17advanceB7v160006IPNS_12basic_stringIcNS_11char_traitsIcEENS_9allocatorIcEEEEllvEEvRT_T0_, symObjAddr: 0x2D7C, symBinAddr: 0x10000E188, symSize: 0x50 }
  - { offsetInCU: 0x6253, offset: 0x3AD5C, size: 0x8, addend: 0x0, symName: __ZNSt3__17advanceB7v160006IPP5MediammvEEvRT_T0_, symObjAddr: 0x3744, symBinAddr: 0x10000E89C, symSize: 0x50 }
  - { offsetInCU: 0x661E, offset: 0x3B127, size: 0x8, addend: 0x0, symName: __ZNSt3__17advanceB7v160006IPP5MediallvEEvRT_T0_, symObjAddr: 0x4648, symBinAddr: 0x10000F7A0, symSize: 0x50 }
  - { offsetInCU: 0x69E5, offset: 0x3B4EE, size: 0x8, addend: 0x0, symName: __ZNSt3__17advanceB7v160006INS_16reverse_iteratorIPNS_12basic_stringIcNS_11char_traitsIcEENS_9allocatorIcEEEEEEllvEEvRT_T0_, symObjAddr: 0x6BD0, symBinAddr: 0x100010864, symSize: 0x50 }
  - { offsetInCU: 0x754F, offset: 0x3C058, size: 0x8, addend: 0x0, symName: __ZNSt3__1plB7v160006IcNS_11char_traitsIcEENS_9allocatorIcEEEENS_12basic_stringIT_T0_T1_EERKS9_PKS6_, symObjAddr: 0x71C, symBinAddr: 0x10000BF3C, symSize: 0x11C }
  - { offsetInCU: 0x75F0, offset: 0x3C0F9, size: 0x8, addend: 0x0, symName: __ZNSt3__119__debug_db_insert_cB7v160006INS_6vectorINS_12basic_stringIcNS_11char_traitsIcEENS_9allocatorIcEEEENS5_IS7_EEEEEEvPT_, symObjAddr: 0xFB8, symBinAddr: 0x10000C500, symSize: 0x10 }
  - { offsetInCU: 0x7622, offset: 0x3C12B, size: 0x8, addend: 0x0, symName: __ZNSt3__119__debug_db_insert_cB7v160006INS_6vectorIP5MediaNS_9allocatorIS3_EEEEEEvPT_, symObjAddr: 0x1124, symBinAddr: 0x10000C66C, symSize: 0x10 }
  - { offsetInCU: 0x7654, offset: 0x3C15D, size: 0x8, addend: 0x0, symName: __ZNSt3__118__debug_db_erase_cB7v160006INS_6vectorIP5MediaNS_9allocatorIS3_EEEEEEvPT_, symObjAddr: 0x13E8, symBinAddr: 0x10000C930, symSize: 0x10 }
  - { offsetInCU: 0x7686, offset: 0x3C18F, size: 0x8, addend: 0x0, symName: __ZNSt3__112__to_addressB7v160006IP5MediaEEPT_S4_, symObjAddr: 0x1504, symBinAddr: 0x10000CA4C, symSize: 0x14 }
  - { offsetInCU: 0x76BC, offset: 0x3C1C5, size: 0x8, addend: 0x0, symName: __ZNSt3__110destroy_atB7v160006IP5MediaLi0EEEvPT_, symObjAddr: 0x15CC, symBinAddr: 0x10000CB14, symSize: 0x24 }
  - { offsetInCU: 0x76F5, offset: 0x3C1FE, size: 0x8, addend: 0x0, symName: __ZNSt3__112__destroy_atB7v160006IP5MediaLi0EEEvPT_, symObjAddr: 0x15F0, symBinAddr: 0x10000CB38, symSize: 0x10 }
  - { offsetInCU: 0x772E, offset: 0x3C237, size: 0x8, addend: 0x0, symName: __ZNSt3__118__debug_db_erase_cB7v160006INS_6vectorINS_12basic_stringIcNS_11char_traitsIcEENS_9allocatorIcEEEENS5_IS7_EEEEEEvPT_, symObjAddr: 0x1A08, symBinAddr: 0x10000CE28, symSize: 0x10 }
  - { offsetInCU: 0x7760, offset: 0x3C269, size: 0x8, addend: 0x0, symName: __ZNSt3__112__to_addressB7v160006INS_12basic_stringIcNS_11char_traitsIcEENS_9allocatorIcEEEEEEPT_S8_, symObjAddr: 0x1B4C, symBinAddr: 0x10000CF6C, symSize: 0x14 }
  - { offsetInCU: 0x7796, offset: 0x3C29F, size: 0x8, addend: 0x0, symName: __ZNSt3__110destroy_atB7v160006INS_12basic_stringIcNS_11char_traitsIcEENS_9allocatorIcEEEELi0EEEvPT_, symObjAddr: 0x1C14, symBinAddr: 0x10000D034, symSize: 0x24 }
  - { offsetInCU: 0x77CF, offset: 0x3C2D8, size: 0x8, addend: 0x0, symName: __ZNSt3__112__destroy_atB7v160006INS_12basic_stringIcNS_11char_traitsIcEENS_9allocatorIcEEEELi0EEEvPT_, symObjAddr: 0x1C38, symBinAddr: 0x10000D058, symSize: 0x24 }
  - { offsetInCU: 0x7808, offset: 0x3C311, size: 0x8, addend: 0x0, symName: __ZNSt3__18distanceB7v160006IPNS_12basic_stringIcNS_11char_traitsIcEENS_9allocatorIcEEEEEENS_15iterator_traitsIT_E15difference_typeES9_S9_, symObjAddr: 0x1EF4, symBinAddr: 0x10000D314, symSize: 0x2C }
  - { offsetInCU: 0x784B, offset: 0x3C354, size: 0x8, addend: 0x0, symName: __ZNSt3__14copyB7v160006IPNS_12basic_stringIcNS_11char_traitsIcEENS_9allocatorIcEEEES7_EET0_T_S9_S8_, symObjAddr: 0x1F70, symBinAddr: 0x10000D390, symSize: 0x40 }
  - { offsetInCU: 0x78A5, offset: 0x3C3AE, size: 0x8, addend: 0x0, symName: __ZNSt3__125__debug_db_invalidate_allB7v160006INS_6vectorINS_12basic_stringIcNS_11char_traitsIcEENS_9allocatorIcEEEENS5_IS7_EEEEEEvPT_, symObjAddr: 0x2290, symBinAddr: 0x10000D6B0, symSize: 0x10 }
  - { offsetInCU: 0x78D7, offset: 0x3C3E0, size: 0x8, addend: 0x0, symName: __ZNSt3__110__distanceB7v160006IPNS_12basic_stringIcNS_11char_traitsIcEENS_9allocatorIcEEEEEENS_15iterator_traitsIT_E15difference_typeES9_S9_NS_26random_access_iterator_tagE, symObjAddr: 0x22A0, symBinAddr: 0x10000D6C0, symSize: 0x28 }
  - { offsetInCU: 0x7926, offset: 0x3C42F, size: 0x8, addend: 0x0, symName: __ZNSt3__19__advanceB7v160006IPNS_12basic_stringIcNS_11char_traitsIcEENS_9allocatorIcEEEEEEvRT_NS_15iterator_traitsIS8_E15difference_typeENS_26random_access_iterator_tagE, symObjAddr: 0x22DC, symBinAddr: 0x10000D6E8, symSize: 0x30 }
  - { offsetInCU: 0x7971, offset: 0x3C47A, size: 0x8, addend: 0x0, symName: __ZNSt3__16__copyB7v160006INS_17_ClassicAlgPolicyEPNS_12basic_stringIcNS_11char_traitsIcEENS_9allocatorIcEEEES8_S8_EENS_4pairIT0_T2_EESA_T1_SB_, symObjAddr: 0x230C, symBinAddr: 0x10000D718, symSize: 0x44 }
  - { offsetInCU: 0x79DD, offset: 0x3C4E6, size: 0x8, addend: 0x0, symName: __ZNSt3__123__dispatch_copy_or_moveB7v160006INS_17_ClassicAlgPolicyENS_11__copy_loopIS1_EENS_14__copy_trivialEPNS_12basic_stringIcNS_11char_traitsIcEENS_9allocatorIcEEEESB_SB_EENS_4pairIT2_T4_EESD_T3_SE_, symObjAddr: 0x2350, symBinAddr: 0x10000D75C, symSize: 0x44 }
  - { offsetInCU: 0x7A5B, offset: 0x3C564, size: 0x8, addend: 0x0, symName: __ZNSt3__121__unwrap_and_dispatchB7v160006INS_10__overloadINS_11__copy_loopINS_17_ClassicAlgPolicyEEENS_14__copy_trivialEEEPNS_12basic_stringIcNS_11char_traitsIcEENS_9allocatorIcEEEESD_SD_Li0EEENS_4pairIT0_T2_EESF_T1_SG_, symObjAddr: 0x2394, symBinAddr: 0x10000D7A0, symSize: 0xB4 }
  - { offsetInCU: 0x7AEA, offset: 0x3C5F3, size: 0x8, addend: 0x0, symName: __ZNSt3__114__unwrap_rangeB7v160006IPNS_12basic_stringIcNS_11char_traitsIcEENS_9allocatorIcEEEES7_EEDaT_T0_, symObjAddr: 0x2448, symBinAddr: 0x10000D854, symSize: 0x3C }
  - { offsetInCU: 0x7C5D, offset: 0x3C766, size: 0x8, addend: 0x0, symName: __ZNSt3__113__unwrap_iterB7v160006IPNS_12basic_stringIcNS_11char_traitsIcEENS_9allocatorIcEEEENS_18__unwrap_iter_implIS7_Lb1EEELi0EEEDTclsrT0_8__unwrapclsr3stdE7declvalIT_EEEESB_, symObjAddr: 0x250C, symBinAddr: 0x10000D918, symSize: 0x24 }
  - { offsetInCU: 0x7CA2, offset: 0x3C7AB, size: 0x8, addend: 0x0, symName: __ZNSt3__19make_pairB7v160006IPNS_12basic_stringIcNS_11char_traitsIcEENS_9allocatorIcEEEES7_EENS_4pairINS_18__unwrap_ref_decayIT_E4typeENS9_IT0_E4typeEEEOSA_OSD_, symObjAddr: 0x2530, symBinAddr: 0x10000D93C, symSize: 0x38 }
  - { offsetInCU: 0x7CF1, offset: 0x3C7FA, size: 0x8, addend: 0x0, symName: __ZNSt3__114__rewrap_rangeB7v160006IPNS_12basic_stringIcNS_11char_traitsIcEENS_9allocatorIcEEEES7_S7_EET0_S8_T1_, symObjAddr: 0x2568, symBinAddr: 0x10000D974, symSize: 0x2C }
  - { offsetInCU: 0x7D46, offset: 0x3C84F, size: 0x8, addend: 0x0, symName: __ZNSt3__113__rewrap_iterB7v160006IPNS_12basic_stringIcNS_11char_traitsIcEENS_9allocatorIcEEEES7_NS_18__unwrap_iter_implIS7_Lb1EEEEET_SA_T0_, symObjAddr: 0x2594, symBinAddr: 0x10000D9A0, symSize: 0x3C }
  - { offsetInCU: 0x7E3E, offset: 0x3C947, size: 0x8, addend: 0x0, symName: __ZNSt3__130__uninitialized_allocator_copyB7v160006INS_9allocatorINS_12basic_stringIcNS_11char_traitsIcEENS1_IcEEEEEEPS6_S8_S8_EET2_RT_T0_T1_S9_, symObjAddr: 0x277C, symBinAddr: 0x10000DB88, symSize: 0xF4 }
  - { offsetInCU: 0x7EDC, offset: 0x3C9E5, size: 0x8, addend: 0x0, symName: __ZNSt3__122__make_exception_guardB7v160006INS_29_AllocatorDestroyRangeReverseINS_9allocatorINS_12basic_stringIcNS_11char_traitsIcEENS2_IcEEEEEEPS7_EEEENS_28__exception_guard_exceptionsIT_EESC_, symObjAddr: 0x28E8, symBinAddr: 0x10000DCF4, symSize: 0x4C }
  - { offsetInCU: 0x7F39, offset: 0x3CA42, size: 0x8, addend: 0x0, symName: __ZNSt3__112construct_atB7v160006INS_12basic_stringIcNS_11char_traitsIcEENS_9allocatorIcEEEEJRS6_EPS6_EEPT_SA_DpOT0_, symObjAddr: 0x2A8C, symBinAddr: 0x10000DE98, symSize: 0x3C }
  - { offsetInCU: 0x7FAE, offset: 0x3CAB7, size: 0x8, addend: 0x0, symName: __ZNSt3__119__allocator_destroyB7v160006INS_9allocatorINS_12basic_stringIcNS_11char_traitsIcEENS1_IcEEEEEENS_16reverse_iteratorIPS6_EESA_EEvRT_T0_T1_, symObjAddr: 0x2B80, symBinAddr: 0x10000DF8C, symSize: 0x70 }
  - { offsetInCU: 0x8012, offset: 0x3CB1B, size: 0x8, addend: 0x0, symName: __ZNSt3__1neB7v160006IPNS_12basic_stringIcNS_11char_traitsIcEENS_9allocatorIcEEEES7_EEbRKNS_16reverse_iteratorIT_EERKNS8_IT0_EE, symObjAddr: 0x2C24, symBinAddr: 0x10000E030, symSize: 0x48 }
  - { offsetInCU: 0x805E, offset: 0x3CB67, size: 0x8, addend: 0x0, symName: __ZNSt3__112__to_addressB7v160006INS_16reverse_iteratorIPNS_12basic_stringIcNS_11char_traitsIcEENS_9allocatorIcEEEEEEvEENS_5decayIDTclsr19__to_address_helperIT_EE6__callclsr3stdE7declvalIRKSB_EEEEE4typeESD_, symObjAddr: 0x2C6C, symBinAddr: 0x10000E078, symSize: 0x24 }
  - { offsetInCU: 0x80BF, offset: 0x3CBC8, size: 0x8, addend: 0x0, symName: __ZNSt3__14prevB7v160006IPNS_12basic_stringIcNS_11char_traitsIcEENS_9allocatorIcEEEEEENS_9enable_ifIXsr25__is_cpp17_input_iteratorIT_EE5valueES9_E4typeES9_NS_15iterator_traitsIS9_E15difference_typeE, symObjAddr: 0x2D2C, symBinAddr: 0x10000E138, symSize: 0x50 }
  - { offsetInCU: 0x8102, offset: 0x3CC0B, size: 0x8, addend: 0x0, symName: __ZNSt3__121__convert_to_integralB7v160006El, symObjAddr: 0x2DCC, symBinAddr: 0x10000E1D8, symSize: 0x14 }
  - { offsetInCU: 0x812F, offset: 0x3CC38, size: 0x8, addend: 0x0, symName: __ZNSt3__119__allocate_at_leastB7v160006INS_9allocatorINS_12basic_stringIcNS_11char_traitsIcEENS1_IcEEEEEEEENS_19__allocation_resultINS_16allocator_traitsIT_E7pointerEEERSA_m, symObjAddr: 0x303C, symBinAddr: 0x10000E448, symSize: 0x40 }
  - { offsetInCU: 0x8172, offset: 0x3CC7B, size: 0x8, addend: 0x0, symName: __ZNSt3__13maxB7v160006ImEERKT_S3_S3_, symObjAddr: 0x34DC, symBinAddr: 0x10000E634, symSize: 0x2C }
  - { offsetInCU: 0x81B5, offset: 0x3CCBE, size: 0x8, addend: 0x0, symName: __ZNSt3__13maxB7v160006ImNS_6__lessImmEEEERKT_S5_S5_T0_, symObjAddr: 0x3508, symBinAddr: 0x10000E660, symSize: 0x54 }
  - { offsetInCU: 0x820F, offset: 0x3CD18, size: 0x8, addend: 0x0, symName: __ZNSt3__18distanceB7v160006IPP5MediaEENS_15iterator_traitsIT_E15difference_typeES5_S5_, symObjAddr: 0x3718, symBinAddr: 0x10000E870, symSize: 0x2C }
  - { offsetInCU: 0x8252, offset: 0x3CD5B, size: 0x8, addend: 0x0, symName: __ZNSt3__14copyB7v160006IPP5MediaS3_EET0_T_S5_S4_, symObjAddr: 0x3794, symBinAddr: 0x10000E8EC, symSize: 0x40 }
  - { offsetInCU: 0x82AC, offset: 0x3CDB5, size: 0x8, addend: 0x0, symName: __ZNSt3__125__debug_db_invalidate_allB7v160006INS_6vectorIP5MediaNS_9allocatorIS3_EEEEEEvPT_, symObjAddr: 0x3AAC, symBinAddr: 0x10000EC04, symSize: 0x10 }
  - { offsetInCU: 0x82DE, offset: 0x3CDE7, size: 0x8, addend: 0x0, symName: __ZNSt3__110__distanceB7v160006IPP5MediaEENS_15iterator_traitsIT_E15difference_typeES5_S5_NS_26random_access_iterator_tagE, symObjAddr: 0x3ABC, symBinAddr: 0x10000EC14, symSize: 0x28 }
  - { offsetInCU: 0x832D, offset: 0x3CE36, size: 0x8, addend: 0x0, symName: __ZNSt3__19__advanceB7v160006IPP5MediaEEvRT_NS_15iterator_traitsIS4_E15difference_typeENS_26random_access_iterator_tagE, symObjAddr: 0x3AE4, symBinAddr: 0x10000EC3C, symSize: 0x28 }
  - { offsetInCU: 0x8378, offset: 0x3CE81, size: 0x8, addend: 0x0, symName: __ZNSt3__16__copyB7v160006INS_17_ClassicAlgPolicyEPP5MediaS4_S4_EENS_4pairIT0_T2_EES6_T1_S7_, symObjAddr: 0x3B0C, symBinAddr: 0x10000EC64, symSize: 0x44 }
  - { offsetInCU: 0x83E4, offset: 0x3CEED, size: 0x8, addend: 0x0, symName: __ZNSt3__123__dispatch_copy_or_moveB7v160006INS_17_ClassicAlgPolicyENS_11__copy_loopIS1_EENS_14__copy_trivialEPP5MediaS7_S7_EENS_4pairIT2_T4_EES9_T3_SA_, symObjAddr: 0x3B50, symBinAddr: 0x10000ECA8, symSize: 0x44 }
  - { offsetInCU: 0x8462, offset: 0x3CF6B, size: 0x8, addend: 0x0, symName: __ZNSt3__121__unwrap_and_dispatchB7v160006INS_10__overloadINS_11__copy_loopINS_17_ClassicAlgPolicyEEENS_14__copy_trivialEEEPP5MediaS9_S9_Li0EEENS_4pairIT0_T2_EESB_T1_SC_, symObjAddr: 0x3B94, symBinAddr: 0x10000ECEC, symSize: 0xB4 }
  - { offsetInCU: 0x84F1, offset: 0x3CFFA, size: 0x8, addend: 0x0, symName: __ZNSt3__114__unwrap_rangeB7v160006IPP5MediaS3_EEDaT_T0_, symObjAddr: 0x3C48, symBinAddr: 0x10000EDA0, symSize: 0x3C }
  - { offsetInCU: 0x86C6, offset: 0x3D1CF, size: 0x8, addend: 0x0, symName: __ZNSt3__113__unwrap_iterB7v160006IPP5MediaNS_18__unwrap_iter_implIS3_Lb1EEELi0EEEDTclsrT0_8__unwrapclsr3stdE7declvalIT_EEEES7_, symObjAddr: 0x3CCC, symBinAddr: 0x10000EE24, symSize: 0x24 }
  - { offsetInCU: 0x870B, offset: 0x3D214, size: 0x8, addend: 0x0, symName: __ZNSt3__19make_pairB7v160006IPP5MediaS3_EENS_4pairINS_18__unwrap_ref_decayIT_E4typeENS5_IT0_E4typeEEEOS6_OS9_, symObjAddr: 0x3CF0, symBinAddr: 0x10000EE48, symSize: 0x38 }
  - { offsetInCU: 0x875A, offset: 0x3D263, size: 0x8, addend: 0x0, symName: __ZNSt3__114__rewrap_rangeB7v160006IPP5MediaS3_S3_EET0_S4_T1_, symObjAddr: 0x3D28, symBinAddr: 0x10000EE80, symSize: 0x2C }
  - { offsetInCU: 0x87AF, offset: 0x3D2B8, size: 0x8, addend: 0x0, symName: __ZNSt3__113__rewrap_iterB7v160006IPP5MediaS3_NS_18__unwrap_iter_implIS3_Lb1EEEEET_S6_T0_, symObjAddr: 0x3D54, symBinAddr: 0x10000EEAC, symSize: 0x3C }
  - { offsetInCU: 0x8854, offset: 0x3D35D, size: 0x8, addend: 0x0, symName: __ZNSt3__119__copy_trivial_implB7v160006IP5MediaS2_EENS_4pairIPT_PT0_EES5_S5_S7_, symObjAddr: 0x3E58, symBinAddr: 0x10000EFB0, symSize: 0x84 }
  - { offsetInCU: 0x88BC, offset: 0x3D3C5, size: 0x8, addend: 0x0, symName: __ZNSt3__19make_pairB7v160006IRPP5MediaS3_EENS_4pairINS_18__unwrap_ref_decayIT_E4typeENS6_IT0_E4typeEEEOS7_OSA_, symObjAddr: 0x3EDC, symBinAddr: 0x10000F034, symSize: 0x38 }
  - { offsetInCU: 0x895E, offset: 0x3D467, size: 0x8, addend: 0x0, symName: __ZNSt3__130__uninitialized_allocator_copyB7v160006INS_9allocatorIP5MediaEEPS3_S5_S5_EET2_RT_T0_T1_S6_, symObjAddr: 0x4060, symBinAddr: 0x10000F1B8, symSize: 0xF4 }
  - { offsetInCU: 0x89FC, offset: 0x3D505, size: 0x8, addend: 0x0, symName: __ZNSt3__122__make_exception_guardB7v160006INS_29_AllocatorDestroyRangeReverseINS_9allocatorIP5MediaEEPS4_EEEENS_28__exception_guard_exceptionsIT_EES9_, symObjAddr: 0x41C4, symBinAddr: 0x10000F31C, symSize: 0x4C }
  - { offsetInCU: 0x8A59, offset: 0x3D562, size: 0x8, addend: 0x0, symName: __ZNSt3__112construct_atB7v160006IP5MediaJRS2_EPS2_EEPT_S6_DpOT0_, symObjAddr: 0x4368, symBinAddr: 0x10000F4C0, symSize: 0x2C }
  - { offsetInCU: 0x8ACF, offset: 0x3D5D8, size: 0x8, addend: 0x0, symName: __ZNSt3__119__allocator_destroyB7v160006INS_9allocatorIP5MediaEENS_16reverse_iteratorIPS3_EES7_EEvRT_T0_T1_, symObjAddr: 0x444C, symBinAddr: 0x10000F5A4, symSize: 0x70 }
  - { offsetInCU: 0x8B33, offset: 0x3D63C, size: 0x8, addend: 0x0, symName: __ZNSt3__1neB7v160006IPP5MediaS3_EEbRKNS_16reverse_iteratorIT_EERKNS4_IT0_EE, symObjAddr: 0x44F0, symBinAddr: 0x10000F648, symSize: 0x48 }
  - { offsetInCU: 0x8B7F, offset: 0x3D688, size: 0x8, addend: 0x0, symName: __ZNSt3__112__to_addressB7v160006INS_16reverse_iteratorIPP5MediaEEvEENS_5decayIDTclsr19__to_address_helperIT_EE6__callclsr3stdE7declvalIRKS7_EEEEE4typeES9_, symObjAddr: 0x4538, symBinAddr: 0x10000F690, symSize: 0x24 }
  - { offsetInCU: 0x8BE0, offset: 0x3D6E9, size: 0x8, addend: 0x0, symName: __ZNSt3__14prevB7v160006IPP5MediaEENS_9enable_ifIXsr25__is_cpp17_input_iteratorIT_EE5valueES5_E4typeES5_NS_15iterator_traitsIS5_E15difference_typeE, symObjAddr: 0x45F8, symBinAddr: 0x10000F750, symSize: 0x50 }
  - { offsetInCU: 0x8C23, offset: 0x3D72C, size: 0x8, addend: 0x0, symName: __ZNSt3__119__allocate_at_leastB7v160006INS_9allocatorIP5MediaEEEENS_19__allocation_resultINS_16allocator_traitsIT_E7pointerEEERS7_m, symObjAddr: 0x48D8, symBinAddr: 0x10000FA30, symSize: 0x40 }
  - { offsetInCU: 0x8C66, offset: 0x3D76F, size: 0x8, addend: 0x0, symName: __ZNSt3__112construct_atB7v160006INS_12basic_stringIcNS_11char_traitsIcEENS_9allocatorIcEEEEJRKS6_EPS6_EEPT_SB_DpOT0_, symObjAddr: 0x6100, symBinAddr: 0x10000FD94, symSize: 0x3C }
  - { offsetInCU: 0x8CDB, offset: 0x3D7E4, size: 0x8, addend: 0x0, symName: __ZNSt3__142__uninitialized_allocator_move_if_noexceptB7v160006INS_9allocatorINS_12basic_stringIcNS_11char_traitsIcEENS1_IcEEEEEENS_16reverse_iteratorIPS6_EESA_SA_EET2_RT_T0_T1_SB_, symObjAddr: 0x64FC, symBinAddr: 0x100010190, symSize: 0x124 }
  - { offsetInCU: 0x8D7B, offset: 0x3D884, size: 0x8, addend: 0x0, symName: __ZNSt3__14swapB7v160006IPNS_12basic_stringIcNS_11char_traitsIcEENS_9allocatorIcEEEEEENS_9enable_ifIXaasr21is_move_constructibleIT_EE5valuesr18is_move_assignableIS9_EE5valueEvE4typeERS9_SC_, symObjAddr: 0x6620, symBinAddr: 0x1000102B4, symSize: 0x3C }
  - { offsetInCU: 0x8DCD, offset: 0x3D8D6, size: 0x8, addend: 0x0, symName: __ZNSt3__122__make_exception_guardB7v160006INS_29_AllocatorDestroyRangeReverseINS_9allocatorINS_12basic_stringIcNS_11char_traitsIcEENS2_IcEEEEEENS_16reverse_iteratorIPS7_EEEEEENS_28__exception_guard_exceptionsIT_EESE_, symObjAddr: 0x665C, symBinAddr: 0x1000102F0, symSize: 0x4C }
  - { offsetInCU: 0x8E03, offset: 0x3D90C, size: 0x8, addend: 0x0, symName: __ZNSt3__112construct_atB7v160006INS_12basic_stringIcNS_11char_traitsIcEENS_9allocatorIcEEEEJS6_EPS6_EEPT_S9_DpOT0_, symObjAddr: 0x6828, symBinAddr: 0x1000104BC, symSize: 0x3C }
  - { offsetInCU: 0x8E78, offset: 0x3D981, size: 0x8, addend: 0x0, symName: __ZNSt3__119__allocator_destroyB7v160006INS_9allocatorINS_12basic_stringIcNS_11char_traitsIcEENS1_IcEEEEEENS_16reverse_iteratorINS8_IPS6_EEEESB_EEvRT_T0_T1_, symObjAddr: 0x6968, symBinAddr: 0x1000105FC, symSize: 0x70 }
  - { offsetInCU: 0x8EDE, offset: 0x3D9E7, size: 0x8, addend: 0x0, symName: __ZNSt3__1neB7v160006INS_16reverse_iteratorIPNS_12basic_stringIcNS_11char_traitsIcEENS_9allocatorIcEEEEEES9_EEbRKNS1_IT_EERKNS1_IT0_EE, symObjAddr: 0x6A14, symBinAddr: 0x1000106A8, symSize: 0x60 }
  - { offsetInCU: 0x8F2A, offset: 0x3DA33, size: 0x8, addend: 0x0, symName: __ZNSt3__112__to_addressB7v160006INS_16reverse_iteratorINS1_IPNS_12basic_stringIcNS_11char_traitsIcEENS_9allocatorIcEEEEEEEEvEENS_5decayIDTclsr19__to_address_helperIT_EE6__callclsr3stdE7declvalIRKSC_EEEEE4typeESE_, symObjAddr: 0x6A74, symBinAddr: 0x100010708, symSize: 0x24 }
  - { offsetInCU: 0x8F8B, offset: 0x3DA94, size: 0x8, addend: 0x0, symName: __ZNSt3__14prevB7v160006INS_16reverse_iteratorIPNS_12basic_stringIcNS_11char_traitsIcEENS_9allocatorIcEEEEEEEENS_9enable_ifIXsr25__is_cpp17_input_iteratorIT_EE5valueESB_E4typeESB_NS_15iterator_traitsISB_E15difference_typeE, symObjAddr: 0x6B70, symBinAddr: 0x100010804, symSize: 0x60 }
  - { offsetInCU: 0x8FCE, offset: 0x3DAD7, size: 0x8, addend: 0x0, symName: __ZNSt3__19__advanceB7v160006INS_16reverse_iteratorIPNS_12basic_stringIcNS_11char_traitsIcEENS_9allocatorIcEEEEEEEEvRT_NS_15iterator_traitsISA_E15difference_typeENS_26random_access_iterator_tagE, symObjAddr: 0x6C20, symBinAddr: 0x1000108B4, symSize: 0x2C }
  - { offsetInCU: 0x9019, offset: 0x3DB22, size: 0x8, addend: 0x0, symName: __ZNSt3__112construct_atB7v160006IP5MediaJRKS2_EPS2_EEPT_S7_DpOT0_, symObjAddr: 0x704C, symBinAddr: 0x100010CE0, symSize: 0x2C }
  - { offsetInCU: 0x908F, offset: 0x3DB98, size: 0x8, addend: 0x0, symName: __ZNSt3__142__uninitialized_allocator_move_if_noexceptB7v160006INS_9allocatorIP5MediaEENS_16reverse_iteratorIPS3_EES7_S3_vEET1_RT_T0_SB_S8_, symObjAddr: 0x742C, symBinAddr: 0x1000110C0, symSize: 0x78 }
  - { offsetInCU: 0x910E, offset: 0x3DC17, size: 0x8, addend: 0x0, symName: __ZNSt3__14swapB7v160006IPP5MediaEENS_9enable_ifIXaasr21is_move_constructibleIT_EE5valuesr18is_move_assignableIS5_EE5valueEvE4typeERS5_S8_, symObjAddr: 0x74A4, symBinAddr: 0x100011138, symSize: 0x3C }
  - { offsetInCU: 0x9160, offset: 0x3DC69, size: 0x8, addend: 0x0, symName: __ZNSt3__14moveB7v160006INS_16reverse_iteratorIPP5MediaEES5_EET0_T_S7_S6_, symObjAddr: 0x74E0, symBinAddr: 0x100011174, symSize: 0x78 }
  - { offsetInCU: 0x91BA, offset: 0x3DCC3, size: 0x8, addend: 0x0, symName: __ZNSt3__16__moveB7v160006INS_17_ClassicAlgPolicyENS_16reverse_iteratorIPP5MediaEES6_S6_EENS_4pairIT0_T2_EES8_T1_S9_, symObjAddr: 0x7558, symBinAddr: 0x1000111EC, symSize: 0x64 }
  - { offsetInCU: 0x9226, offset: 0x3DD2F, size: 0x8, addend: 0x0, symName: __ZNSt3__123__dispatch_copy_or_moveB7v160006INS_17_ClassicAlgPolicyENS_11__move_loopIS1_EENS_14__move_trivialENS_16reverse_iteratorIPP5MediaEES9_S9_EENS_4pairIT2_T4_EESB_T3_SC_, symObjAddr: 0x75BC, symBinAddr: 0x100011250, symSize: 0x64 }
  - { offsetInCU: 0x92A4, offset: 0x3DDAD, size: 0x8, addend: 0x0, symName: __ZNSt3__121__unwrap_and_dispatchB7v160006INS_10__overloadINS_11__move_loopINS_17_ClassicAlgPolicyEEENS_14__move_trivialEEENS_16reverse_iteratorIPP5MediaEESB_SB_Li0EEENS_4pairIT0_T2_EESD_T1_SE_, symObjAddr: 0x7620, symBinAddr: 0x1000112B4, symSize: 0x12C }
  - { offsetInCU: 0x9335, offset: 0x3DE3E, size: 0x8, addend: 0x0, symName: __ZNSt3__114__unwrap_rangeB7v160006INS_16reverse_iteratorIPP5MediaEES5_EEDaT_T0_, symObjAddr: 0x774C, symBinAddr: 0x1000113E0, symSize: 0x4C }
  - { offsetInCU: 0x94A8, offset: 0x3DFB1, size: 0x8, addend: 0x0, symName: __ZNSt3__113__unwrap_iterB7v160006INS_16reverse_iteratorIPP5MediaEENS_18__unwrap_iter_implIS5_Lb0EEELi0EEEDTclsrT0_8__unwrapclsr3stdE7declvalIT_EEEES9_, symObjAddr: 0x7838, symBinAddr: 0x1000114CC, symSize: 0x44 }
  - { offsetInCU: 0x94ED, offset: 0x3DFF6, size: 0x8, addend: 0x0, symName: __ZNSt3__19make_pairB7v160006INS_16reverse_iteratorIPP5MediaEES5_EENS_4pairINS_18__unwrap_ref_decayIT_E4typeENS7_IT0_E4typeEEEOS8_OSB_, symObjAddr: 0x787C, symBinAddr: 0x100011510, symSize: 0x38 }
  - { offsetInCU: 0x953C, offset: 0x3E045, size: 0x8, addend: 0x0, symName: __ZNSt3__114__rewrap_rangeB7v160006INS_16reverse_iteratorIPP5MediaEES5_S5_EET0_S6_T1_, symObjAddr: 0x78B4, symBinAddr: 0x100011548, symSize: 0x5C }
  - { offsetInCU: 0x9591, offset: 0x3E09A, size: 0x8, addend: 0x0, symName: __ZNSt3__113__rewrap_iterB7v160006INS_16reverse_iteratorIPP5MediaEES5_NS_18__unwrap_iter_implIS5_Lb0EEEEET_S8_T0_, symObjAddr: 0x7910, symBinAddr: 0x1000115A4, symSize: 0x74 }
  - { offsetInCU: 0x9ED3, offset: 0x3E9DC, size: 0x8, addend: 0x0, symName: __ZNSt3__16vectorINS_12basic_stringIcNS_11char_traitsIcEENS_9allocatorIcEEEENS4_IS6_EEE26__swap_out_circular_bufferERNS_14__split_bufferIS6_RS7_EE, symObjAddr: 0x6180, symBinAddr: 0x10000FE14, symSize: 0x118 }
  - { offsetInCU: 0x9F50, offset: 0x3EA59, size: 0x8, addend: 0x0, symName: __ZNSt3__16vectorIP5MediaNS_9allocatorIS2_EEE26__swap_out_circular_bufferERNS_14__split_bufferIS2_RS4_EE, symObjAddr: 0x70BC, symBinAddr: 0x100010D50, symSize: 0x118 }
  - { offsetInCU: 0xBE81, offset: 0x4098A, size: 0x8, addend: 0x0, symName: __ZN8CustomerC2Ev, symObjAddr: 0x0, symBinAddr: 0x10000B88C, symSize: 0xA4 }
  - { offsetInCU: 0xBEAB, offset: 0x409B4, size: 0x8, addend: 0x0, symName: __ZNSt3__112basic_stringIcNS_11char_traitsIcEENS_9allocatorIcEEEC1B7v160006Ev, symObjAddr: 0xA4, symBinAddr: 0x10000B930, symSize: 0x2C }
  - { offsetInCU: 0xBED4, offset: 0x409DD, size: 0x8, addend: 0x0, symName: __ZNSt3__16vectorINS_12basic_stringIcNS_11char_traitsIcEENS_9allocatorIcEEEENS4_IS6_EEEC1B7v160006Ev, symObjAddr: 0xD0, symBinAddr: 0x10000B95C, symSize: 0x2C }
  - { offsetInCU: 0xBEFD, offset: 0x40A06, size: 0x8, addend: 0x0, symName: __ZNSt3__16vectorIP5MediaNS_9allocatorIS2_EEEC1B7v160006Ev, symObjAddr: 0xFC, symBinAddr: 0x10000B988, symSize: 0x2C }
  - { offsetInCU: 0xBF26, offset: 0x40A2F, size: 0x8, addend: 0x0, symName: __ZNSt3__16vectorIP5MediaNS_9allocatorIS2_EEED1B7v160006Ev, symObjAddr: 0x154, symBinAddr: 0x10000B9B4, symSize: 0x2C }
  - { offsetInCU: 0xBF4F, offset: 0x40A58, size: 0x8, addend: 0x0, symName: __ZNSt3__16vectorINS_12basic_stringIcNS_11char_traitsIcEENS_9allocatorIcEEEENS4_IS6_EEED1B7v160006Ev, symObjAddr: 0x180, symBinAddr: 0x10000B9E0, symSize: 0x2C }
  - { offsetInCU: 0xBF78, offset: 0x40A81, size: 0x8, addend: 0x0, symName: __ZN8CustomerC1Ev, symObjAddr: 0x1AC, symBinAddr: 0x10000BA0C, symSize: 0x2C }
  - { offsetInCU: 0xBFA2, offset: 0x40AAB, size: 0x8, addend: 0x0, symName: __ZN8CustomerD2Ev, symObjAddr: 0x1D8, symBinAddr: 0x10000BA38, symSize: 0xA0 }
  - { offsetInCU: 0xBFE8, offset: 0x40AF1, size: 0x8, addend: 0x0, symName: __ZNKSt3__16vectorIP5MediaNS_9allocatorIS2_EEE4sizeB7v160006Ev, symObjAddr: 0x278, symBinAddr: 0x10000BAD8, symSize: 0x28 }
  - { offsetInCU: 0xC00C, offset: 0x40B15, size: 0x8, addend: 0x0, symName: __ZNSt3__16vectorIP5MediaNS_9allocatorIS2_EEEixB7v160006Em, symObjAddr: 0x2A0, symBinAddr: 0x10000BB00, symSize: 0x24 }
  - { offsetInCU: 0xC042, offset: 0x40B4B, size: 0x8, addend: 0x0, symName: __ZN8CustomerD1Ev, symObjAddr: 0x2C4, symBinAddr: 0x10000BB24, symSize: 0x2C }
  - { offsetInCU: 0xC06C, offset: 0x40B75, size: 0x8, addend: 0x0, symName: __ZN8CustomerC2EiNSt3__112basic_stringIcNS0_11char_traitsIcEENS0_9allocatorIcEEEE, symObjAddr: 0x2F0, symBinAddr: 0x10000BB50, symSize: 0xB0 }
  - { offsetInCU: 0xC0B3, offset: 0x40BBC, size: 0x8, addend: 0x0, symName: __ZN8CustomerC1EiNSt3__112basic_stringIcNS0_11char_traitsIcEENS0_9allocatorIcEEEE, symObjAddr: 0x3A0, symBinAddr: 0x10000BC00, symSize: 0x3C }
  - { offsetInCU: 0xC0FA, offset: 0x40C03, size: 0x8, addend: 0x0, symName: __ZN8CustomerC2ERKS_, symObjAddr: 0x3DC, symBinAddr: 0x10000BC3C, symSize: 0xE0 }
  - { offsetInCU: 0xC132, offset: 0x40C3B, size: 0x8, addend: 0x0, symName: __ZNSt3__16vectorINS_12basic_stringIcNS_11char_traitsIcEENS_9allocatorIcEEEENS4_IS6_EEEaSB7v160006ERKS8_, symObjAddr: 0x4BC, symBinAddr: 0x10000BD1C, symSize: 0x68 }
  - { offsetInCU: 0xC167, offset: 0x40C70, size: 0x8, addend: 0x0, symName: __ZNSt3__16vectorIP5MediaNS_9allocatorIS2_EEEaSB7v160006ERKS5_, symObjAddr: 0x524, symBinAddr: 0x10000BD84, symSize: 0x68 }
  - { offsetInCU: 0xC19C, offset: 0x40CA5, size: 0x8, addend: 0x0, symName: __ZN8CustomerC1ERKS_, symObjAddr: 0x58C, symBinAddr: 0x10000BDEC, symSize: 0x34 }
  - { offsetInCU: 0xC1D4, offset: 0x40CDD, size: 0x8, addend: 0x0, symName: __ZNK8Customer5getIDEv, symObjAddr: 0x5C0, symBinAddr: 0x10000BE20, symSize: 0x18 }
  - { offsetInCU: 0xC1FA, offset: 0x40D03, size: 0x8, addend: 0x0, symName: __ZNK8Customer7getNameEv, symObjAddr: 0x5D8, symBinAddr: 0x10000BE38, symSize: 0x3C }
  - { offsetInCU: 0xC220, offset: 0x40D29, size: 0x8, addend: 0x0, symName: __ZN8Customer5setIDEi, symObjAddr: 0x614, symBinAddr: 0x10000BE74, symSize: 0x20 }
  - { offsetInCU: 0xC254, offset: 0x40D5D, size: 0x8, addend: 0x0, symName: __ZN8Customer7setNameENSt3__112basic_stringIcNS0_11char_traitsIcEENS0_9allocatorIcEEEES6_, symObjAddr: 0x634, symBinAddr: 0x10000BE94, symSize: 0xA8 }
  - { offsetInCU: 0xC298, offset: 0x40DA1, size: 0x8, addend: 0x0, symName: __ZNK8Customer10getHistoryEv, symObjAddr: 0x86C, symBinAddr: 0x10000C058, symSize: 0x18 }
  - { offsetInCU: 0xC2BE, offset: 0x40DC7, size: 0x8, addend: 0x0, symName: __ZNK8Customer14getOutstandingEv, symObjAddr: 0x884, symBinAddr: 0x10000C070, symSize: 0x18 }
  - { offsetInCU: 0xC2E4, offset: 0x40DED, size: 0x8, addend: 0x0, symName: __ZN8Customer10AddHistoryENSt3__112basic_stringIcNS0_11char_traitsIcEENS0_9allocatorIcEEEE, symObjAddr: 0x89C, symBinAddr: 0x10000C088, symSize: 0x30 }
  - { offsetInCU: 0xC319, offset: 0x40E22, size: 0x8, addend: 0x0, symName: __ZNSt3__16vectorINS_12basic_stringIcNS_11char_traitsIcEENS_9allocatorIcEEEENS4_IS6_EEE9push_backB7v160006ERKS6_, symObjAddr: 0x8CC, symBinAddr: 0x10000C0B8, symSize: 0x6C }
  - { offsetInCU: 0xC34E, offset: 0x40E57, size: 0x8, addend: 0x0, symName: __ZN8Customer11BorrowMediaEP5Media, symObjAddr: 0x938, symBinAddr: 0x10000C124, symSize: 0x34 }
  - { offsetInCU: 0xC382, offset: 0x40E8B, size: 0x8, addend: 0x0, symName: __ZNSt3__16vectorIP5MediaNS_9allocatorIS2_EEE9push_backB7v160006ERKS2_, symObjAddr: 0x96C, symBinAddr: 0x10000C158, symSize: 0x6C }
  - { offsetInCU: 0xC3B7, offset: 0x40EC0, size: 0x8, addend: 0x0, symName: __ZN8Customer11ReturnMediaEP5Media, symObjAddr: 0x9D8, symBinAddr: 0x10000C1C4, symSize: 0xFC }
  - { offsetInCU: 0xC415, offset: 0x40F1E, size: 0x8, addend: 0x0, symName: __ZNSt3__16vectorIP5MediaNS_9allocatorIS2_EEE4backB7v160006Ev, symObjAddr: 0xAD4, symBinAddr: 0x10000C2C0, symSize: 0x1C }
  - { offsetInCU: 0xC439, offset: 0x40F42, size: 0x8, addend: 0x0, symName: __ZNSt3__16vectorIP5MediaNS_9allocatorIS2_EEE8pop_backEv, symObjAddr: 0xAF0, symBinAddr: 0x10000C2DC, symSize: 0x2C }
  - { offsetInCU: 0xC45F, offset: 0x40F68, size: 0x8, addend: 0x0, symName: __ZNK8CustomerltERKS_, symObjAddr: 0xB1C, symBinAddr: 0x10000C308, symSize: 0x30 }
  - { offsetInCU: 0xC493, offset: 0x40F9C, size: 0x8, addend: 0x0, symName: __ZNK8CustomereqERKS_, symObjAddr: 0xB4C, symBinAddr: 0x10000C338, symSize: 0x30 }
  - { offsetInCU: 0xC4C6, offset: 0x40FCF, size: 0x8, addend: 0x0, symName: __ZlsRNSt3__113basic_ostreamIcNS_11char_traitsIcEEEERK8Customer, symObjAddr: 0xB7C, symBinAddr: 0x10000C368, symSize: 0xB0 }
  - { offsetInCU: 0xC501, offset: 0x4100A, size: 0x8, addend: 0x0, symName: __ZNSt3__112basic_stringIcNS_11char_traitsIcEENS_9allocatorIcEEEC2B7v160006Ev, symObjAddr: 0xD44, symBinAddr: 0x10000C418, symSize: 0x54 }
  - { offsetInCU: 0xC52F, offset: 0x41038, size: 0x8, addend: 0x0, symName: __ZNSt3__16vectorINS_12basic_stringIcNS_11char_traitsIcEENS_9allocatorIcEEEENS4_IS6_EEEC2B7v160006Ev, symObjAddr: 0xF24, symBinAddr: 0x10000C46C, symSize: 0x58 }
  - { offsetInCU: 0xC55D, offset: 0x41066, size: 0x8, addend: 0x0, symName: __ZNSt3__117__compressed_pairIPNS_12basic_stringIcNS_11char_traitsIcEENS_9allocatorIcEEEENS4_IS6_EEEC1B7v160006IDnNS_18__default_init_tagEEEOT_OT0_, symObjAddr: 0xF7C, symBinAddr: 0x10000C4C4, symSize: 0x3C }
  - { offsetInCU: 0xC5B4, offset: 0x410BD, size: 0x8, addend: 0x0, symName: __ZNSt3__117__compressed_pairIPNS_12basic_stringIcNS_11char_traitsIcEENS_9allocatorIcEEEENS4_IS6_EEEC2B7v160006IDnNS_18__default_init_tagEEEOT_OT0_, symObjAddr: 0xFC8, symBinAddr: 0x10000C510, symSize: 0x40 }
  - { offsetInCU: 0xC60B, offset: 0x41114, size: 0x8, addend: 0x0, symName: __ZNSt3__122__compressed_pair_elemIPNS_12basic_stringIcNS_11char_traitsIcEENS_9allocatorIcEEEELi0ELb0EEC2B7v160006IDnvEEOT_, symObjAddr: 0x1008, symBinAddr: 0x10000C550, symSize: 0x1C }
  - { offsetInCU: 0xC64D, offset: 0x41156, size: 0x8, addend: 0x0, symName: __ZNSt3__122__compressed_pair_elemINS_9allocatorINS_12basic_stringIcNS_11char_traitsIcEENS1_IcEEEEEELi1ELb1EEC2B7v160006ENS_18__default_init_tagE, symObjAddr: 0x1024, symBinAddr: 0x10000C56C, symSize: 0x2C }
  - { offsetInCU: 0xC681, offset: 0x4118A, size: 0x8, addend: 0x0, symName: __ZNSt3__19allocatorINS_12basic_stringIcNS_11char_traitsIcEENS0_IcEEEEEC2B7v160006Ev, symObjAddr: 0x1050, symBinAddr: 0x10000C598, symSize: 0x2C }
  - { offsetInCU: 0xC6AA, offset: 0x411B3, size: 0x8, addend: 0x0, symName: __ZNSt3__116__non_trivial_ifILb1ENS_9allocatorINS_12basic_stringIcNS_11char_traitsIcEENS1_IcEEEEEEEC2B7v160006Ev, symObjAddr: 0x107C, symBinAddr: 0x10000C5C4, symSize: 0x14 }
  - { offsetInCU: 0xC6D3, offset: 0x411DC, size: 0x8, addend: 0x0, symName: __ZNSt3__16vectorIP5MediaNS_9allocatorIS2_EEEC2B7v160006Ev, symObjAddr: 0x1090, symBinAddr: 0x10000C5D8, symSize: 0x58 }
  - { offsetInCU: 0xC6FC, offset: 0x41205, size: 0x8, addend: 0x0, symName: __ZNSt3__117__compressed_pairIPP5MediaNS_9allocatorIS2_EEEC1B7v160006IDnNS_18__default_init_tagEEEOT_OT0_, symObjAddr: 0x10E8, symBinAddr: 0x10000C630, symSize: 0x3C }
  - { offsetInCU: 0xC753, offset: 0x4125C, size: 0x8, addend: 0x0, symName: __ZNSt3__117__compressed_pairIPP5MediaNS_9allocatorIS2_EEEC2B7v160006IDnNS_18__default_init_tagEEEOT_OT0_, symObjAddr: 0x1134, symBinAddr: 0x10000C67C, symSize: 0x40 }
  - { offsetInCU: 0xC7AA, offset: 0x412B3, size: 0x8, addend: 0x0, symName: __ZNSt3__122__compressed_pair_elemIPP5MediaLi0ELb0EEC2B7v160006IDnvEEOT_, symObjAddr: 0x1174, symBinAddr: 0x10000C6BC, symSize: 0x1C }
  - { offsetInCU: 0xC7EC, offset: 0x412F5, size: 0x8, addend: 0x0, symName: __ZNSt3__122__compressed_pair_elemINS_9allocatorIP5MediaEELi1ELb1EEC2B7v160006ENS_18__default_init_tagE, symObjAddr: 0x1190, symBinAddr: 0x10000C6D8, symSize: 0x2C }
  - { offsetInCU: 0xC820, offset: 0x41329, size: 0x8, addend: 0x0, symName: __ZNSt3__19allocatorIP5MediaEC2B7v160006Ev, symObjAddr: 0x11BC, symBinAddr: 0x10000C704, symSize: 0x2C }
  - { offsetInCU: 0xC849, offset: 0x41352, size: 0x8, addend: 0x0, symName: __ZNSt3__116__non_trivial_ifILb1ENS_9allocatorIP5MediaEEEC2B7v160006Ev, symObjAddr: 0x11E8, symBinAddr: 0x10000C730, symSize: 0x14 }
  - { offsetInCU: 0xC872, offset: 0x4137B, size: 0x8, addend: 0x0, symName: __ZNSt3__16vectorIP5MediaNS_9allocatorIS2_EEED2B7v160006Ev, symObjAddr: 0x11FC, symBinAddr: 0x10000C744, symSize: 0x44 }
  - { offsetInCU: 0xC89B, offset: 0x413A4, size: 0x8, addend: 0x0, symName: __ZNSt3__16vectorIP5MediaNS_9allocatorIS2_EEE16__destroy_vectorC1ERS5_, symObjAddr: 0x1240, symBinAddr: 0x10000C788, symSize: 0x34 }
  - { offsetInCU: 0xC8D3, offset: 0x413DC, size: 0x8, addend: 0x0, symName: __ZNSt3__16vectorIP5MediaNS_9allocatorIS2_EEE16__destroy_vectorclB7v160006Ev, symObjAddr: 0x1274, symBinAddr: 0x10000C7BC, symSize: 0x9C }
  - { offsetInCU: 0xC8F7, offset: 0x41400, size: 0x8, addend: 0x0, symName: __ZNSt3__16vectorIP5MediaNS_9allocatorIS2_EEE16__destroy_vectorC2ERS5_, symObjAddr: 0x1310, symBinAddr: 0x10000C858, symSize: 0x20 }
  - { offsetInCU: 0xC92F, offset: 0x41438, size: 0x8, addend: 0x0, symName: __ZNKSt3__16vectorIP5MediaNS_9allocatorIS2_EEE17__annotate_deleteB7v160006Ev, symObjAddr: 0x1330, symBinAddr: 0x10000C878, symSize: 0xB8 }
  - { offsetInCU: 0xC953, offset: 0x4145C, size: 0x8, addend: 0x0, symName: __ZNSt3__16vectorIP5MediaNS_9allocatorIS2_EEE7__clearB7v160006Ev, symObjAddr: 0x13F8, symBinAddr: 0x10000C940, symSize: 0x28 }
  - { offsetInCU: 0xC977, offset: 0x41480, size: 0x8, addend: 0x0, symName: __ZNSt3__116allocator_traitsINS_9allocatorIP5MediaEEE10deallocateB7v160006ERS4_PS3_m, symObjAddr: 0x1420, symBinAddr: 0x10000C968, symSize: 0x34 }
  - { offsetInCU: 0xC9B9, offset: 0x414C2, size: 0x8, addend: 0x0, symName: __ZNSt3__16vectorIP5MediaNS_9allocatorIS2_EEE7__allocB7v160006Ev, symObjAddr: 0x1454, symBinAddr: 0x10000C99C, symSize: 0x28 }
  - { offsetInCU: 0xC9DD, offset: 0x414E6, size: 0x8, addend: 0x0, symName: __ZNKSt3__16vectorIP5MediaNS_9allocatorIS2_EEE8capacityB7v160006Ev, symObjAddr: 0x147C, symBinAddr: 0x10000C9C4, symSize: 0x40 }
  - { offsetInCU: 0xCA01, offset: 0x4150A, size: 0x8, addend: 0x0, symName: __ZNKSt3__16vectorIP5MediaNS_9allocatorIS2_EEE31__annotate_contiguous_containerB7v160006EPKvS7_S7_S7_, symObjAddr: 0x14BC, symBinAddr: 0x10000CA04, symSize: 0x20 }
  - { offsetInCU: 0xCA55, offset: 0x4155E, size: 0x8, addend: 0x0, symName: __ZNKSt3__16vectorIP5MediaNS_9allocatorIS2_EEE4dataB7v160006Ev, symObjAddr: 0x14DC, symBinAddr: 0x10000CA24, symSize: 0x28 }
  - { offsetInCU: 0xCA79, offset: 0x41582, size: 0x8, addend: 0x0, symName: __ZNSt3__16vectorIP5MediaNS_9allocatorIS2_EEE22__base_destruct_at_endB7v160006EPS2_, symObjAddr: 0x1518, symBinAddr: 0x10000CA60, symSize: 0x8C }
  - { offsetInCU: 0xCABB, offset: 0x415C4, size: 0x8, addend: 0x0, symName: __ZNSt3__116allocator_traitsINS_9allocatorIP5MediaEEE7destroyB7v160006IS3_vvEEvRS4_PT_, symObjAddr: 0x15A4, symBinAddr: 0x10000CAEC, symSize: 0x28 }
  - { offsetInCU: 0xCAF8, offset: 0x41601, size: 0x8, addend: 0x0, symName: __ZNSt3__19allocatorIP5MediaE10deallocateB7v160006EPS2_m, symObjAddr: 0x1600, symBinAddr: 0x10000CB48, symSize: 0x40 }
  - { offsetInCU: 0xCB38, offset: 0x41641, size: 0x8, addend: 0x0, symName: __ZNSt3__117__compressed_pairIPP5MediaNS_9allocatorIS2_EEE6secondB7v160006Ev, symObjAddr: 0x1768, symBinAddr: 0x10000CB88, symSize: 0x24 }
  - { offsetInCU: 0xCB5C, offset: 0x41665, size: 0x8, addend: 0x0, symName: __ZNSt3__122__compressed_pair_elemINS_9allocatorIP5MediaEELi1ELb1EE5__getB7v160006Ev, symObjAddr: 0x178C, symBinAddr: 0x10000CBAC, symSize: 0x14 }
  - { offsetInCU: 0xCB80, offset: 0x41689, size: 0x8, addend: 0x0, symName: __ZNKSt3__16vectorIP5MediaNS_9allocatorIS2_EEE9__end_capB7v160006Ev, symObjAddr: 0x17A0, symBinAddr: 0x10000CBC0, symSize: 0x28 }
  - { offsetInCU: 0xCBA4, offset: 0x416AD, size: 0x8, addend: 0x0, symName: __ZNKSt3__117__compressed_pairIPP5MediaNS_9allocatorIS2_EEE5firstB7v160006Ev, symObjAddr: 0x17C8, symBinAddr: 0x10000CBE8, symSize: 0x24 }
  - { offsetInCU: 0xCBC8, offset: 0x416D1, size: 0x8, addend: 0x0, symName: __ZNKSt3__122__compressed_pair_elemIPP5MediaLi0ELb0EE5__getB7v160006Ev, symObjAddr: 0x17EC, symBinAddr: 0x10000CC0C, symSize: 0x14 }
  - { offsetInCU: 0xCBEC, offset: 0x416F5, size: 0x8, addend: 0x0, symName: __ZNSt3__16vectorINS_12basic_stringIcNS_11char_traitsIcEENS_9allocatorIcEEEENS4_IS6_EEED2B7v160006Ev, symObjAddr: 0x1800, symBinAddr: 0x10000CC20, symSize: 0x44 }
  - { offsetInCU: 0xCC15, offset: 0x4171E, size: 0x8, addend: 0x0, symName: __ZNSt3__16vectorINS_12basic_stringIcNS_11char_traitsIcEENS_9allocatorIcEEEENS4_IS6_EEE16__destroy_vectorC1ERS8_, symObjAddr: 0x1844, symBinAddr: 0x10000CC64, symSize: 0x34 }
  - { offsetInCU: 0xCC4D, offset: 0x41756, size: 0x8, addend: 0x0, symName: __ZNSt3__16vectorINS_12basic_stringIcNS_11char_traitsIcEENS_9allocatorIcEEEENS4_IS6_EEE16__destroy_vectorclB7v160006Ev, symObjAddr: 0x1878, symBinAddr: 0x10000CC98, symSize: 0x9C }
  - { offsetInCU: 0xCC71, offset: 0x4177A, size: 0x8, addend: 0x0, symName: __ZNSt3__16vectorINS_12basic_stringIcNS_11char_traitsIcEENS_9allocatorIcEEEENS4_IS6_EEE16__destroy_vectorC2ERS8_, symObjAddr: 0x1914, symBinAddr: 0x10000CD34, symSize: 0x20 }
  - { offsetInCU: 0xCCA9, offset: 0x417B2, size: 0x8, addend: 0x0, symName: __ZNKSt3__16vectorINS_12basic_stringIcNS_11char_traitsIcEENS_9allocatorIcEEEENS4_IS6_EEE17__annotate_deleteB7v160006Ev, symObjAddr: 0x1934, symBinAddr: 0x10000CD54, symSize: 0xD4 }
  - { offsetInCU: 0xCCCD, offset: 0x417D6, size: 0x8, addend: 0x0, symName: __ZNSt3__16vectorINS_12basic_stringIcNS_11char_traitsIcEENS_9allocatorIcEEEENS4_IS6_EEE7__clearB7v160006Ev, symObjAddr: 0x1A18, symBinAddr: 0x10000CE38, symSize: 0x28 }
  - { offsetInCU: 0xCCF1, offset: 0x417FA, size: 0x8, addend: 0x0, symName: __ZNSt3__116allocator_traitsINS_9allocatorINS_12basic_stringIcNS_11char_traitsIcEENS1_IcEEEEEEE10deallocateB7v160006ERS7_PS6_m, symObjAddr: 0x1A40, symBinAddr: 0x10000CE60, symSize: 0x34 }
  - { offsetInCU: 0xCD33, offset: 0x4183C, size: 0x8, addend: 0x0, symName: __ZNSt3__16vectorINS_12basic_stringIcNS_11char_traitsIcEENS_9allocatorIcEEEENS4_IS6_EEE7__allocB7v160006Ev, symObjAddr: 0x1A74, symBinAddr: 0x10000CE94, symSize: 0x28 }
  - { offsetInCU: 0xCD57, offset: 0x41860, size: 0x8, addend: 0x0, symName: __ZNKSt3__16vectorINS_12basic_stringIcNS_11char_traitsIcEENS_9allocatorIcEEEENS4_IS6_EEE8capacityB7v160006Ev, symObjAddr: 0x1A9C, symBinAddr: 0x10000CEBC, symSize: 0x40 }
  - { offsetInCU: 0xCD7B, offset: 0x41884, size: 0x8, addend: 0x0, symName: __ZNKSt3__16vectorINS_12basic_stringIcNS_11char_traitsIcEENS_9allocatorIcEEEENS4_IS6_EEE31__annotate_contiguous_containerB7v160006EPKvSA_SA_SA_, symObjAddr: 0x1ADC, symBinAddr: 0x10000CEFC, symSize: 0x20 }
  - { offsetInCU: 0xCDCF, offset: 0x418D8, size: 0x8, addend: 0x0, symName: __ZNKSt3__16vectorINS_12basic_stringIcNS_11char_traitsIcEENS_9allocatorIcEEEENS4_IS6_EEE4dataB7v160006Ev, symObjAddr: 0x1AFC, symBinAddr: 0x10000CF1C, symSize: 0x28 }
  - { offsetInCU: 0xCDF3, offset: 0x418FC, size: 0x8, addend: 0x0, symName: __ZNKSt3__16vectorINS_12basic_stringIcNS_11char_traitsIcEENS_9allocatorIcEEEENS4_IS6_EEE4sizeB7v160006Ev, symObjAddr: 0x1B24, symBinAddr: 0x10000CF44, symSize: 0x28 }
  - { offsetInCU: 0xCE17, offset: 0x41920, size: 0x8, addend: 0x0, symName: __ZNSt3__16vectorINS_12basic_stringIcNS_11char_traitsIcEENS_9allocatorIcEEEENS4_IS6_EEE22__base_destruct_at_endB7v160006EPS6_, symObjAddr: 0x1B60, symBinAddr: 0x10000CF80, symSize: 0x8C }
  - { offsetInCU: 0xCE59, offset: 0x41962, size: 0x8, addend: 0x0, symName: __ZNSt3__116allocator_traitsINS_9allocatorINS_12basic_stringIcNS_11char_traitsIcEENS1_IcEEEEEEE7destroyB7v160006IS6_vvEEvRS7_PT_, symObjAddr: 0x1BEC, symBinAddr: 0x10000D00C, symSize: 0x28 }
  - { offsetInCU: 0xCE96, offset: 0x4199F, size: 0x8, addend: 0x0, symName: __ZNSt3__19allocatorINS_12basic_stringIcNS_11char_traitsIcEENS0_IcEEEEE10deallocateB7v160006EPS5_m, symObjAddr: 0x1C5C, symBinAddr: 0x10000D07C, symSize: 0x44 }
  - { offsetInCU: 0xCED6, offset: 0x419DF, size: 0x8, addend: 0x0, symName: __ZNSt3__117__compressed_pairIPNS_12basic_stringIcNS_11char_traitsIcEENS_9allocatorIcEEEENS4_IS6_EEE6secondB7v160006Ev, symObjAddr: 0x1CA0, symBinAddr: 0x10000D0C0, symSize: 0x24 }
  - { offsetInCU: 0xCEFA, offset: 0x41A03, size: 0x8, addend: 0x0, symName: __ZNSt3__122__compressed_pair_elemINS_9allocatorINS_12basic_stringIcNS_11char_traitsIcEENS1_IcEEEEEELi1ELb1EE5__getB7v160006Ev, symObjAddr: 0x1CC4, symBinAddr: 0x10000D0E4, symSize: 0x14 }
  - { offsetInCU: 0xCF1E, offset: 0x41A27, size: 0x8, addend: 0x0, symName: __ZNKSt3__16vectorINS_12basic_stringIcNS_11char_traitsIcEENS_9allocatorIcEEEENS4_IS6_EEE9__end_capB7v160006Ev, symObjAddr: 0x1CD8, symBinAddr: 0x10000D0F8, symSize: 0x28 }
  - { offsetInCU: 0xCF42, offset: 0x41A4B, size: 0x8, addend: 0x0, symName: __ZNKSt3__117__compressed_pairIPNS_12basic_stringIcNS_11char_traitsIcEENS_9allocatorIcEEEENS4_IS6_EEE5firstB7v160006Ev, symObjAddr: 0x1D00, symBinAddr: 0x10000D120, symSize: 0x24 }
  - { offsetInCU: 0xCF66, offset: 0x41A6F, size: 0x8, addend: 0x0, symName: __ZNKSt3__122__compressed_pair_elemIPNS_12basic_stringIcNS_11char_traitsIcEENS_9allocatorIcEEEELi0ELb0EE5__getB7v160006Ev, symObjAddr: 0x1D24, symBinAddr: 0x10000D144, symSize: 0x14 }
  - { offsetInCU: 0xCF8A, offset: 0x41A93, size: 0x8, addend: 0x0, symName: __ZNSt3__16vectorINS_12basic_stringIcNS_11char_traitsIcEENS_9allocatorIcEEEENS4_IS6_EEE19__copy_assign_allocB7v160006ERKS8_, symObjAddr: 0x1D38, symBinAddr: 0x10000D158, symSize: 0x2C }
  - { offsetInCU: 0xCFBD, offset: 0x41AC6, size: 0x8, addend: 0x0, symName: __ZNSt3__16vectorINS_12basic_stringIcNS_11char_traitsIcEENS_9allocatorIcEEEENS4_IS6_EEE6assignIPS6_Li0EEEvT_SB_, symObjAddr: 0x1D64, symBinAddr: 0x10000D184, symSize: 0x17C }
  - { offsetInCU: 0xD05B, offset: 0x41B64, size: 0x8, addend: 0x0, symName: __ZNSt3__16vectorINS_12basic_stringIcNS_11char_traitsIcEENS_9allocatorIcEEEENS4_IS6_EEE19__copy_assign_allocB7v160006ERKS8_NS_17integral_constantIbLb0EEE, symObjAddr: 0x1EE0, symBinAddr: 0x10000D300, symSize: 0x14 }
  - { offsetInCU: 0xD097, offset: 0x41BA0, size: 0x8, addend: 0x0, symName: __ZNSt3__16vectorINS_12basic_stringIcNS_11char_traitsIcEENS_9allocatorIcEEEENS4_IS6_EEE18__construct_at_endIPS6_Li0EEEvT_SB_m, symObjAddr: 0x1FB0, symBinAddr: 0x10000D3D0, symSize: 0x8C }
  - { offsetInCU: 0xD109, offset: 0x41C12, size: 0x8, addend: 0x0, symName: __ZNSt3__16vectorINS_12basic_stringIcNS_11char_traitsIcEENS_9allocatorIcEEEENS4_IS6_EEE17__destruct_at_endB7v160006EPS6_, symObjAddr: 0x203C, symBinAddr: 0x10000D45C, symSize: 0x60 }
  - { offsetInCU: 0xD14B, offset: 0x41C54, size: 0x8, addend: 0x0, symName: __ZNSt3__16vectorINS_12basic_stringIcNS_11char_traitsIcEENS_9allocatorIcEEEENS4_IS6_EEE13__vdeallocateEv, symObjAddr: 0x209C, symBinAddr: 0x10000D4BC, symSize: 0x8C }
  - { offsetInCU: 0xD171, offset: 0x41C7A, size: 0x8, addend: 0x0, symName: __ZNSt3__16vectorINS_12basic_stringIcNS_11char_traitsIcEENS_9allocatorIcEEEENS4_IS6_EEE11__vallocateB7v160006Em, symObjAddr: 0x2128, symBinAddr: 0x10000D548, symSize: 0xB4 }
  - { offsetInCU: 0xD1B3, offset: 0x41CBC, size: 0x8, addend: 0x0, symName: __ZNKSt3__16vectorINS_12basic_stringIcNS_11char_traitsIcEENS_9allocatorIcEEEENS4_IS6_EEE11__recommendB7v160006Em, symObjAddr: 0x21DC, symBinAddr: 0x10000D5FC, symSize: 0xB4 }
  - { offsetInCU: 0xD229, offset: 0x41D32, size: 0x8, addend: 0x0, symName: __ZNKSt3__111__copy_loopINS_17_ClassicAlgPolicyEEclB7v160006IPNS_12basic_stringIcNS_11char_traitsIcEENS_9allocatorIcEEEESA_SA_EENS_4pairIT_T1_EESC_T0_SD_, symObjAddr: 0x2484, symBinAddr: 0x10000D890, symSize: 0x88 }
  - { offsetInCU: 0xD292, offset: 0x41D9B, size: 0x8, addend: 0x0, symName: __ZNSt3__119__unwrap_range_implIPNS_12basic_stringIcNS_11char_traitsIcEENS_9allocatorIcEEEES7_E8__unwrapB7v160006ES7_S7_, symObjAddr: 0x25D0, symBinAddr: 0x10000D9DC, symSize: 0x58 }
  - { offsetInCU: 0xD2C8, offset: 0x41DD1, size: 0x8, addend: 0x0, symName: __ZNSt3__14pairIPNS_12basic_stringIcNS_11char_traitsIcEENS_9allocatorIcEEEES7_EC1B7v160006IS7_S7_LPv0EEEOT_OT0_, symObjAddr: 0x2628, symBinAddr: 0x10000DA34, symSize: 0x3C }
  - { offsetInCU: 0xD326, offset: 0x41E2F, size: 0x8, addend: 0x0, symName: __ZNSt3__14pairIPNS_12basic_stringIcNS_11char_traitsIcEENS_9allocatorIcEEEES7_EC2B7v160006IS7_S7_LPv0EEEOT_OT0_, symObjAddr: 0x2664, symBinAddr: 0x10000DA70, symSize: 0x34 }
  - { offsetInCU: 0xD384, offset: 0x41E8D, size: 0x8, addend: 0x0, symName: __ZNSt3__118__unwrap_iter_implIPNS_12basic_stringIcNS_11char_traitsIcEENS_9allocatorIcEEEELb1EE8__unwrapB7v160006ES7_, symObjAddr: 0x2698, symBinAddr: 0x10000DAA4, symSize: 0x24 }
  - { offsetInCU: 0xD3A7, offset: 0x41EB0, size: 0x8, addend: 0x0, symName: __ZNSt3__119__unwrap_range_implIPNS_12basic_stringIcNS_11char_traitsIcEENS_9allocatorIcEEEES7_E8__rewrapB7v160006ES7_S7_, symObjAddr: 0x26BC, symBinAddr: 0x10000DAC8, symSize: 0x2C }
  - { offsetInCU: 0xD3D8, offset: 0x41EE1, size: 0x8, addend: 0x0, symName: __ZNSt3__118__unwrap_iter_implIPNS_12basic_stringIcNS_11char_traitsIcEENS_9allocatorIcEEEELb1EE8__rewrapB7v160006ES7_S7_, symObjAddr: 0x26E8, symBinAddr: 0x10000DAF4, symSize: 0x58 }
  - { offsetInCU: 0xD422, offset: 0x41F2B, size: 0x8, addend: 0x0, symName: __ZNSt3__16vectorINS_12basic_stringIcNS_11char_traitsIcEENS_9allocatorIcEEEENS4_IS6_EEE21_ConstructTransactionC1B7v160006ERS8_m, symObjAddr: 0x2740, symBinAddr: 0x10000DB4C, symSize: 0x3C }
  - { offsetInCU: 0xD469, offset: 0x41F72, size: 0x8, addend: 0x0, symName: __ZNSt3__16vectorINS_12basic_stringIcNS_11char_traitsIcEENS_9allocatorIcEEEENS4_IS6_EEE21_ConstructTransactionD1B7v160006Ev, symObjAddr: 0x2870, symBinAddr: 0x10000DC7C, symSize: 0x2C }
  - { offsetInCU: 0xD492, offset: 0x41F9B, size: 0x8, addend: 0x0, symName: __ZNSt3__16vectorINS_12basic_stringIcNS_11char_traitsIcEENS_9allocatorIcEEEENS4_IS6_EEE21_ConstructTransactionC2B7v160006ERS8_m, symObjAddr: 0x289C, symBinAddr: 0x10000DCA8, symSize: 0x4C }
  - { offsetInCU: 0xD4D9, offset: 0x41FE2, size: 0x8, addend: 0x0, symName: __ZNSt3__129_AllocatorDestroyRangeReverseINS_9allocatorINS_12basic_stringIcNS_11char_traitsIcEENS1_IcEEEEEEPS6_EC1B7v160006ERS7_RS8_SB_, symObjAddr: 0x2934, symBinAddr: 0x10000DD40, symSize: 0x44 }
  - { offsetInCU: 0xD52F, offset: 0x42038, size: 0x8, addend: 0x0, symName: __ZNSt3__116allocator_traitsINS_9allocatorINS_12basic_stringIcNS_11char_traitsIcEENS1_IcEEEEEEE9constructB7v160006IS6_JRS6_EvvEEvRS7_PT_DpOT0_, symObjAddr: 0x2978, symBinAddr: 0x10000DD84, symSize: 0x30 }
  - { offsetInCU: 0xD588, offset: 0x42091, size: 0x8, addend: 0x0, symName: __ZNSt3__128__exception_guard_exceptionsINS_29_AllocatorDestroyRangeReverseINS_9allocatorINS_12basic_stringIcNS_11char_traitsIcEENS2_IcEEEEEEPS7_EEE10__completeB7v160006Ev, symObjAddr: 0x29A8, symBinAddr: 0x10000DDB4, symSize: 0x1C }
  - { offsetInCU: 0xD5AC, offset: 0x420B5, size: 0x8, addend: 0x0, symName: __ZNSt3__128__exception_guard_exceptionsINS_29_AllocatorDestroyRangeReverseINS_9allocatorINS_12basic_stringIcNS_11char_traitsIcEENS2_IcEEEEEEPS7_EEED1B7v160006Ev, symObjAddr: 0x29C4, symBinAddr: 0x10000DDD0, symSize: 0x2C }
  - { offsetInCU: 0xD5D5, offset: 0x420DE, size: 0x8, addend: 0x0, symName: __ZNSt3__128__exception_guard_exceptionsINS_29_AllocatorDestroyRangeReverseINS_9allocatorINS_12basic_stringIcNS_11char_traitsIcEENS2_IcEEEEEEPS7_EEEC1B7v160006ESA_, symObjAddr: 0x29F0, symBinAddr: 0x10000DDFC, symSize: 0x34 }
  - { offsetInCU: 0xD60D, offset: 0x42116, size: 0x8, addend: 0x0, symName: __ZNSt3__128__exception_guard_exceptionsINS_29_AllocatorDestroyRangeReverseINS_9allocatorINS_12basic_stringIcNS_11char_traitsIcEENS2_IcEEEEEEPS7_EEEC2B7v160006ESA_, symObjAddr: 0x2A24, symBinAddr: 0x10000DE30, symSize: 0x30 }
  - { offsetInCU: 0xD645, offset: 0x4214E, size: 0x8, addend: 0x0, symName: __ZNSt3__129_AllocatorDestroyRangeReverseINS_9allocatorINS_12basic_stringIcNS_11char_traitsIcEENS1_IcEEEEEEPS6_EC2B7v160006ERS7_RS8_SB_, symObjAddr: 0x2A54, symBinAddr: 0x10000DE60, symSize: 0x38 }
  - { offsetInCU: 0xD69B, offset: 0x421A4, size: 0x8, addend: 0x0, symName: __ZNSt3__128__exception_guard_exceptionsINS_29_AllocatorDestroyRangeReverseINS_9allocatorINS_12basic_stringIcNS_11char_traitsIcEENS2_IcEEEEEEPS7_EEED2B7v160006Ev, symObjAddr: 0x2AC8, symBinAddr: 0x10000DED4, symSize: 0x50 }
  - { offsetInCU: 0xD6C4, offset: 0x421CD, size: 0x8, addend: 0x0, symName: __ZNKSt3__129_AllocatorDestroyRangeReverseINS_9allocatorINS_12basic_stringIcNS_11char_traitsIcEENS1_IcEEEEEEPS6_EclB7v160006Ev, symObjAddr: 0x2B18, symBinAddr: 0x10000DF24, symSize: 0x68 }
  - { offsetInCU: 0xD6E8, offset: 0x421F1, size: 0x8, addend: 0x0, symName: __ZNSt3__116reverse_iteratorIPNS_12basic_stringIcNS_11char_traitsIcEENS_9allocatorIcEEEEEC1B7v160006ES7_, symObjAddr: 0x2BF0, symBinAddr: 0x10000DFFC, symSize: 0x34 }
  - { offsetInCU: 0xD71F, offset: 0x42228, size: 0x8, addend: 0x0, symName: __ZNSt3__116reverse_iteratorIPNS_12basic_stringIcNS_11char_traitsIcEENS_9allocatorIcEEEEEppB7v160006Ev, symObjAddr: 0x2C90, symBinAddr: 0x10000E09C, symSize: 0x20 }
  - { offsetInCU: 0xD743, offset: 0x4224C, size: 0x8, addend: 0x0, symName: __ZNKSt3__116reverse_iteratorIPNS_12basic_stringIcNS_11char_traitsIcEENS_9allocatorIcEEEEE4baseB7v160006Ev, symObjAddr: 0x2CB0, symBinAddr: 0x10000E0BC, symSize: 0x18 }
  - { offsetInCU: 0xD76C, offset: 0x42275, size: 0x8, addend: 0x0, symName: __ZNSt3__119__to_address_helperINS_16reverse_iteratorIPNS_12basic_stringIcNS_11char_traitsIcEENS_9allocatorIcEEEEEEvE6__callB7v160006ERKS9_, symObjAddr: 0x2CC8, symBinAddr: 0x10000E0D4, symSize: 0x38 }
  - { offsetInCU: 0xD78F, offset: 0x42298, size: 0x8, addend: 0x0, symName: __ZNKSt3__116reverse_iteratorIPNS_12basic_stringIcNS_11char_traitsIcEENS_9allocatorIcEEEEEptB7v160006Ev, symObjAddr: 0x2D00, symBinAddr: 0x10000E10C, symSize: 0x2C }
  - { offsetInCU: 0xD7B3, offset: 0x422BC, size: 0x8, addend: 0x0, symName: __ZNSt3__116reverse_iteratorIPNS_12basic_stringIcNS_11char_traitsIcEENS_9allocatorIcEEEEEC2B7v160006ES7_, symObjAddr: 0x2DE0, symBinAddr: 0x10000E1EC, symSize: 0x28 }
  - { offsetInCU: 0xD7EA, offset: 0x422F3, size: 0x8, addend: 0x0, symName: __ZNSt3__16vectorINS_12basic_stringIcNS_11char_traitsIcEENS_9allocatorIcEEEENS4_IS6_EEE21_ConstructTransactionD2B7v160006Ev, symObjAddr: 0x2E08, symBinAddr: 0x10000E214, symSize: 0x20 }
  - { offsetInCU: 0xD813, offset: 0x4231C, size: 0x8, addend: 0x0, symName: __ZNSt3__16vectorINS_12basic_stringIcNS_11char_traitsIcEENS_9allocatorIcEEEENS4_IS6_EEE27__invalidate_iterators_pastB7v160006EPS6_, symObjAddr: 0x2E28, symBinAddr: 0x10000E234, symSize: 0x14 }
  - { offsetInCU: 0xD849, offset: 0x42352, size: 0x8, addend: 0x0, symName: __ZNKSt3__16vectorINS_12basic_stringIcNS_11char_traitsIcEENS_9allocatorIcEEEENS4_IS6_EEE17__annotate_shrinkB7v160006Em, symObjAddr: 0x2E3C, symBinAddr: 0x10000E248, symSize: 0xD0 }
  - { offsetInCU: 0xD87C, offset: 0x42385, size: 0x8, addend: 0x0, symName: __ZNSt3__16vectorINS_12basic_stringIcNS_11char_traitsIcEENS_9allocatorIcEEEENS4_IS6_EEE5clearB7v160006Ev, symObjAddr: 0x2F0C, symBinAddr: 0x10000E318, symSize: 0x54 }
  - { offsetInCU: 0xD8AF, offset: 0x423B8, size: 0x8, addend: 0x0, symName: __ZNSt3__16vectorINS_12basic_stringIcNS_11char_traitsIcEENS_9allocatorIcEEEENS4_IS6_EEE9__end_capB7v160006Ev, symObjAddr: 0x2F60, symBinAddr: 0x10000E36C, symSize: 0x28 }
  - { offsetInCU: 0xD8D3, offset: 0x423DC, size: 0x8, addend: 0x0, symName: __ZNSt3__117__compressed_pairIPNS_12basic_stringIcNS_11char_traitsIcEENS_9allocatorIcEEEENS4_IS6_EEE5firstB7v160006Ev, symObjAddr: 0x2F88, symBinAddr: 0x10000E394, symSize: 0x24 }
  - { offsetInCU: 0xD8F7, offset: 0x42400, size: 0x8, addend: 0x0, symName: __ZNSt3__122__compressed_pair_elemIPNS_12basic_stringIcNS_11char_traitsIcEENS_9allocatorIcEEEELi0ELb0EE5__getB7v160006Ev, symObjAddr: 0x2FAC, symBinAddr: 0x10000E3B8, symSize: 0x14 }
  - { offsetInCU: 0xD91B, offset: 0x42424, size: 0x8, addend: 0x0, symName: __ZNKSt3__16vectorINS_12basic_stringIcNS_11char_traitsIcEENS_9allocatorIcEEEENS4_IS6_EEE8max_sizeEv, symObjAddr: 0x2FC0, symBinAddr: 0x10000E3CC, symSize: 0x60 }
  - { offsetInCU: 0xD941, offset: 0x4244A, size: 0x8, addend: 0x0, symName: __ZNKSt3__16vectorINS_12basic_stringIcNS_11char_traitsIcEENS_9allocatorIcEEEENS4_IS6_EEE20__throw_length_errorB7v160006Ev, symObjAddr: 0x3020, symBinAddr: 0x10000E42C, symSize: 0x1C }
  - { offsetInCU: 0xD965, offset: 0x4246E, size: 0x8, addend: 0x0, symName: __ZNKSt3__16vectorINS_12basic_stringIcNS_11char_traitsIcEENS_9allocatorIcEEEENS4_IS6_EEE14__annotate_newB7v160006Em, symObjAddr: 0x307C, symBinAddr: 0x10000E488, symSize: 0xC8 }
  - { offsetInCU: 0xD9A2, offset: 0x424AB, size: 0x8, addend: 0x0, symName: __ZNSt3__116allocator_traitsINS_9allocatorINS_12basic_stringIcNS_11char_traitsIcEENS1_IcEEEEEEE8max_sizeB7v160006IS7_vvEEmRKS7_, symObjAddr: 0x3170, symBinAddr: 0x10000E550, symSize: 0x28 }
  - { offsetInCU: 0xD9D0, offset: 0x424D9, size: 0x8, addend: 0x0, symName: __ZNKSt3__16vectorINS_12basic_stringIcNS_11char_traitsIcEENS_9allocatorIcEEEENS4_IS6_EEE7__allocB7v160006Ev, symObjAddr: 0x3198, symBinAddr: 0x10000E578, symSize: 0x28 }
  - { offsetInCU: 0xD9FE, offset: 0x42507, size: 0x8, addend: 0x0, symName: __ZNKSt3__117__compressed_pairIPNS_12basic_stringIcNS_11char_traitsIcEENS_9allocatorIcEEEENS4_IS6_EEE6secondB7v160006Ev, symObjAddr: 0x3278, symBinAddr: 0x10000E5A0, symSize: 0x24 }
  - { offsetInCU: 0xDA22, offset: 0x4252B, size: 0x8, addend: 0x0, symName: __ZNKSt3__122__compressed_pair_elemINS_9allocatorINS_12basic_stringIcNS_11char_traitsIcEENS1_IcEEEEEELi1ELb1EE5__getB7v160006Ev, symObjAddr: 0x329C, symBinAddr: 0x10000E5C4, symSize: 0x14 }
  - { offsetInCU: 0xDA46, offset: 0x4254F, size: 0x8, addend: 0x0, symName: __ZNSt3__19allocatorINS_12basic_stringIcNS_11char_traitsIcEENS0_IcEEEEE8allocateB7v160006Em, symObjAddr: 0x339C, symBinAddr: 0x10000E5D8, symSize: 0x5C }
  - { offsetInCU: 0xDA78, offset: 0x42581, size: 0x8, addend: 0x0, symName: __ZNSt3__16vectorIP5MediaNS_9allocatorIS2_EEE19__copy_assign_allocB7v160006ERKS5_, symObjAddr: 0x355C, symBinAddr: 0x10000E6B4, symSize: 0x2C }
  - { offsetInCU: 0xDAAB, offset: 0x425B4, size: 0x8, addend: 0x0, symName: __ZNSt3__16vectorIP5MediaNS_9allocatorIS2_EEE6assignIPS2_Li0EEEvT_S8_, symObjAddr: 0x3588, symBinAddr: 0x10000E6E0, symSize: 0x17C }
  - { offsetInCU: 0xDB49, offset: 0x42652, size: 0x8, addend: 0x0, symName: __ZNSt3__16vectorIP5MediaNS_9allocatorIS2_EEE19__copy_assign_allocB7v160006ERKS5_NS_17integral_constantIbLb0EEE, symObjAddr: 0x3704, symBinAddr: 0x10000E85C, symSize: 0x14 }
  - { offsetInCU: 0xDB85, offset: 0x4268E, size: 0x8, addend: 0x0, symName: __ZNSt3__16vectorIP5MediaNS_9allocatorIS2_EEE18__construct_at_endIPS2_Li0EEEvT_S8_m, symObjAddr: 0x37D4, symBinAddr: 0x10000E92C, symSize: 0x8C }
  - { offsetInCU: 0xDBF7, offset: 0x42700, size: 0x8, addend: 0x0, symName: __ZNSt3__16vectorIP5MediaNS_9allocatorIS2_EEE17__destruct_at_endB7v160006EPS2_, symObjAddr: 0x3860, symBinAddr: 0x10000E9B8, symSize: 0x60 }
  - { offsetInCU: 0xDC39, offset: 0x42742, size: 0x8, addend: 0x0, symName: __ZNSt3__16vectorIP5MediaNS_9allocatorIS2_EEE13__vdeallocateEv, symObjAddr: 0x38C0, symBinAddr: 0x10000EA18, symSize: 0x8C }
  - { offsetInCU: 0xDC5F, offset: 0x42768, size: 0x8, addend: 0x0, symName: __ZNSt3__16vectorIP5MediaNS_9allocatorIS2_EEE11__vallocateB7v160006Em, symObjAddr: 0x394C, symBinAddr: 0x10000EAA4, symSize: 0xAC }
  - { offsetInCU: 0xDCA1, offset: 0x427AA, size: 0x8, addend: 0x0, symName: __ZNKSt3__16vectorIP5MediaNS_9allocatorIS2_EEE11__recommendB7v160006Em, symObjAddr: 0x39F8, symBinAddr: 0x10000EB50, symSize: 0xB4 }
  - { offsetInCU: 0xDD17, offset: 0x42820, size: 0x8, addend: 0x0, symName: __ZNKSt3__114__copy_trivialclB7v160006IP5MediaS3_Li0EEENS_4pairIPT_PT0_EES6_S6_S8_, symObjAddr: 0x3C84, symBinAddr: 0x10000EDDC, symSize: 0x48 }
  - { offsetInCU: 0xDD7E, offset: 0x42887, size: 0x8, addend: 0x0, symName: __ZNSt3__119__unwrap_range_implIPP5MediaS3_E8__unwrapB7v160006ES3_S3_, symObjAddr: 0x3D90, symBinAddr: 0x10000EEE8, symSize: 0x58 }
  - { offsetInCU: 0xDDB4, offset: 0x428BD, size: 0x8, addend: 0x0, symName: __ZNSt3__14pairIPP5MediaS3_EC1B7v160006IS3_S3_LPv0EEEOT_OT0_, symObjAddr: 0x3DE8, symBinAddr: 0x10000EF40, symSize: 0x3C }
  - { offsetInCU: 0xDE12, offset: 0x4291B, size: 0x8, addend: 0x0, symName: __ZNSt3__14pairIPP5MediaS3_EC2B7v160006IS3_S3_LPv0EEEOT_OT0_, symObjAddr: 0x3E24, symBinAddr: 0x10000EF7C, symSize: 0x34 }
  - { offsetInCU: 0xDE70, offset: 0x42979, size: 0x8, addend: 0x0, symName: __ZNSt3__14pairIPP5MediaS3_EC1B7v160006IRS3_S3_LPv0EEEOT_OT0_, symObjAddr: 0x3F14, symBinAddr: 0x10000F06C, symSize: 0x3C }
  - { offsetInCU: 0xDECE, offset: 0x429D7, size: 0x8, addend: 0x0, symName: __ZNSt3__14pairIPP5MediaS3_EC2B7v160006IRS3_S3_LPv0EEEOT_OT0_, symObjAddr: 0x3F50, symBinAddr: 0x10000F0A8, symSize: 0x34 }
  - { offsetInCU: 0xDF2C, offset: 0x42A35, size: 0x8, addend: 0x0, symName: __ZNSt3__118__unwrap_iter_implIPP5MediaLb1EE8__unwrapB7v160006ES3_, symObjAddr: 0x3F84, symBinAddr: 0x10000F0DC, symSize: 0x24 }
  - { offsetInCU: 0xDF4F, offset: 0x42A58, size: 0x8, addend: 0x0, symName: __ZNSt3__119__unwrap_range_implIPP5MediaS3_E8__rewrapB7v160006ES3_S3_, symObjAddr: 0x3FA8, symBinAddr: 0x10000F100, symSize: 0x2C }
  - { offsetInCU: 0xDF80, offset: 0x42A89, size: 0x8, addend: 0x0, symName: __ZNSt3__118__unwrap_iter_implIPP5MediaLb1EE8__rewrapB7v160006ES3_S3_, symObjAddr: 0x3FD4, symBinAddr: 0x10000F12C, symSize: 0x50 }
  - { offsetInCU: 0xDFCA, offset: 0x42AD3, size: 0x8, addend: 0x0, symName: __ZNSt3__16vectorIP5MediaNS_9allocatorIS2_EEE21_ConstructTransactionC1B7v160006ERS5_m, symObjAddr: 0x4024, symBinAddr: 0x10000F17C, symSize: 0x3C }
  - { offsetInCU: 0xE011, offset: 0x42B1A, size: 0x8, addend: 0x0, symName: __ZNSt3__16vectorIP5MediaNS_9allocatorIS2_EEE21_ConstructTransactionD1B7v160006Ev, symObjAddr: 0x4154, symBinAddr: 0x10000F2AC, symSize: 0x2C }
  - { offsetInCU: 0xE03A, offset: 0x42B43, size: 0x8, addend: 0x0, symName: __ZNSt3__16vectorIP5MediaNS_9allocatorIS2_EEE21_ConstructTransactionC2B7v160006ERS5_m, symObjAddr: 0x4180, symBinAddr: 0x10000F2D8, symSize: 0x44 }
  - { offsetInCU: 0xE081, offset: 0x42B8A, size: 0x8, addend: 0x0, symName: __ZNSt3__129_AllocatorDestroyRangeReverseINS_9allocatorIP5MediaEEPS3_EC1B7v160006ERS4_RS5_S8_, symObjAddr: 0x4210, symBinAddr: 0x10000F368, symSize: 0x44 }
  - { offsetInCU: 0xE0D7, offset: 0x42BE0, size: 0x8, addend: 0x0, symName: __ZNSt3__116allocator_traitsINS_9allocatorIP5MediaEEE9constructB7v160006IS3_JRS3_EvvEEvRS4_PT_DpOT0_, symObjAddr: 0x4254, symBinAddr: 0x10000F3AC, symSize: 0x30 }
  - { offsetInCU: 0xE130, offset: 0x42C39, size: 0x8, addend: 0x0, symName: __ZNSt3__128__exception_guard_exceptionsINS_29_AllocatorDestroyRangeReverseINS_9allocatorIP5MediaEEPS4_EEE10__completeB7v160006Ev, symObjAddr: 0x4284, symBinAddr: 0x10000F3DC, symSize: 0x1C }
  - { offsetInCU: 0xE154, offset: 0x42C5D, size: 0x8, addend: 0x0, symName: __ZNSt3__128__exception_guard_exceptionsINS_29_AllocatorDestroyRangeReverseINS_9allocatorIP5MediaEEPS4_EEED1B7v160006Ev, symObjAddr: 0x42A0, symBinAddr: 0x10000F3F8, symSize: 0x2C }
  - { offsetInCU: 0xE17D, offset: 0x42C86, size: 0x8, addend: 0x0, symName: __ZNSt3__128__exception_guard_exceptionsINS_29_AllocatorDestroyRangeReverseINS_9allocatorIP5MediaEEPS4_EEEC1B7v160006ES7_, symObjAddr: 0x42CC, symBinAddr: 0x10000F424, symSize: 0x34 }
  - { offsetInCU: 0xE1B5, offset: 0x42CBE, size: 0x8, addend: 0x0, symName: __ZNSt3__128__exception_guard_exceptionsINS_29_AllocatorDestroyRangeReverseINS_9allocatorIP5MediaEEPS4_EEEC2B7v160006ES7_, symObjAddr: 0x4300, symBinAddr: 0x10000F458, symSize: 0x30 }
  - { offsetInCU: 0xE1ED, offset: 0x42CF6, size: 0x8, addend: 0x0, symName: __ZNSt3__129_AllocatorDestroyRangeReverseINS_9allocatorIP5MediaEEPS3_EC2B7v160006ERS4_RS5_S8_, symObjAddr: 0x4330, symBinAddr: 0x10000F488, symSize: 0x38 }
  - { offsetInCU: 0xE243, offset: 0x42D4C, size: 0x8, addend: 0x0, symName: __ZNSt3__128__exception_guard_exceptionsINS_29_AllocatorDestroyRangeReverseINS_9allocatorIP5MediaEEPS4_EEED2B7v160006Ev, symObjAddr: 0x4394, symBinAddr: 0x10000F4EC, symSize: 0x50 }
  - { offsetInCU: 0xE26C, offset: 0x42D75, size: 0x8, addend: 0x0, symName: __ZNKSt3__129_AllocatorDestroyRangeReverseINS_9allocatorIP5MediaEEPS3_EclB7v160006Ev, symObjAddr: 0x43E4, symBinAddr: 0x10000F53C, symSize: 0x68 }
  - { offsetInCU: 0xE290, offset: 0x42D99, size: 0x8, addend: 0x0, symName: __ZNSt3__116reverse_iteratorIPP5MediaEC1B7v160006ES3_, symObjAddr: 0x44BC, symBinAddr: 0x10000F614, symSize: 0x34 }
  - { offsetInCU: 0xE2C7, offset: 0x42DD0, size: 0x8, addend: 0x0, symName: __ZNSt3__116reverse_iteratorIPP5MediaEppB7v160006Ev, symObjAddr: 0x455C, symBinAddr: 0x10000F6B4, symSize: 0x20 }
  - { offsetInCU: 0xE2EB, offset: 0x42DF4, size: 0x8, addend: 0x0, symName: __ZNKSt3__116reverse_iteratorIPP5MediaE4baseB7v160006Ev, symObjAddr: 0x457C, symBinAddr: 0x10000F6D4, symSize: 0x18 }
  - { offsetInCU: 0xE314, offset: 0x42E1D, size: 0x8, addend: 0x0, symName: __ZNSt3__119__to_address_helperINS_16reverse_iteratorIPP5MediaEEvE6__callB7v160006ERKS5_, symObjAddr: 0x4594, symBinAddr: 0x10000F6EC, symSize: 0x38 }
  - { offsetInCU: 0xE337, offset: 0x42E40, size: 0x8, addend: 0x0, symName: __ZNKSt3__116reverse_iteratorIPP5MediaEptB7v160006Ev, symObjAddr: 0x45CC, symBinAddr: 0x10000F724, symSize: 0x2C }
  - { offsetInCU: 0xE35B, offset: 0x42E64, size: 0x8, addend: 0x0, symName: __ZNSt3__116reverse_iteratorIPP5MediaEC2B7v160006ES3_, symObjAddr: 0x4698, symBinAddr: 0x10000F7F0, symSize: 0x28 }
  - { offsetInCU: 0xE392, offset: 0x42E9B, size: 0x8, addend: 0x0, symName: __ZNSt3__16vectorIP5MediaNS_9allocatorIS2_EEE21_ConstructTransactionD2B7v160006Ev, symObjAddr: 0x46C0, symBinAddr: 0x10000F818, symSize: 0x20 }
  - { offsetInCU: 0xE3BB, offset: 0x42EC4, size: 0x8, addend: 0x0, symName: __ZNSt3__16vectorIP5MediaNS_9allocatorIS2_EEE27__invalidate_iterators_pastB7v160006EPS2_, symObjAddr: 0x46E0, symBinAddr: 0x10000F838, symSize: 0x14 }
  - { offsetInCU: 0xE3F1, offset: 0x42EFA, size: 0x8, addend: 0x0, symName: __ZNKSt3__16vectorIP5MediaNS_9allocatorIS2_EEE17__annotate_shrinkB7v160006Em, symObjAddr: 0x46F4, symBinAddr: 0x10000F84C, symSize: 0xB4 }
  - { offsetInCU: 0xE424, offset: 0x42F2D, size: 0x8, addend: 0x0, symName: __ZNSt3__16vectorIP5MediaNS_9allocatorIS2_EEE5clearB7v160006Ev, symObjAddr: 0x47A8, symBinAddr: 0x10000F900, symSize: 0x54 }
  - { offsetInCU: 0xE457, offset: 0x42F60, size: 0x8, addend: 0x0, symName: __ZNSt3__16vectorIP5MediaNS_9allocatorIS2_EEE9__end_capB7v160006Ev, symObjAddr: 0x47FC, symBinAddr: 0x10000F954, symSize: 0x28 }
  - { offsetInCU: 0xE47B, offset: 0x42F84, size: 0x8, addend: 0x0, symName: __ZNSt3__117__compressed_pairIPP5MediaNS_9allocatorIS2_EEE5firstB7v160006Ev, symObjAddr: 0x4824, symBinAddr: 0x10000F97C, symSize: 0x24 }
  - { offsetInCU: 0xE49F, offset: 0x42FA8, size: 0x8, addend: 0x0, symName: __ZNSt3__122__compressed_pair_elemIPP5MediaLi0ELb0EE5__getB7v160006Ev, symObjAddr: 0x4848, symBinAddr: 0x10000F9A0, symSize: 0x14 }
  - { offsetInCU: 0xE4C3, offset: 0x42FCC, size: 0x8, addend: 0x0, symName: __ZNKSt3__16vectorIP5MediaNS_9allocatorIS2_EEE8max_sizeEv, symObjAddr: 0x485C, symBinAddr: 0x10000F9B4, symSize: 0x60 }
  - { offsetInCU: 0xE4E9, offset: 0x42FF2, size: 0x8, addend: 0x0, symName: __ZNKSt3__16vectorIP5MediaNS_9allocatorIS2_EEE20__throw_length_errorB7v160006Ev, symObjAddr: 0x48BC, symBinAddr: 0x10000FA14, symSize: 0x1C }
  - { offsetInCU: 0xE50D, offset: 0x43016, size: 0x8, addend: 0x0, symName: __ZNKSt3__16vectorIP5MediaNS_9allocatorIS2_EEE14__annotate_newB7v160006Em, symObjAddr: 0x4918, symBinAddr: 0x10000FA70, symSize: 0xAC }
  - { offsetInCU: 0xE54A, offset: 0x43053, size: 0x8, addend: 0x0, symName: __ZNSt3__116allocator_traitsINS_9allocatorIP5MediaEEE8max_sizeB7v160006IS4_vvEEmRKS4_, symObjAddr: 0x49C4, symBinAddr: 0x10000FB1C, symSize: 0x28 }
  - { offsetInCU: 0xE578, offset: 0x43081, size: 0x8, addend: 0x0, symName: __ZNKSt3__16vectorIP5MediaNS_9allocatorIS2_EEE7__allocB7v160006Ev, symObjAddr: 0x49EC, symBinAddr: 0x10000FB44, symSize: 0x28 }
  - { offsetInCU: 0xE59C, offset: 0x430A5, size: 0x8, addend: 0x0, symName: __ZNKSt3__117__compressed_pairIPP5MediaNS_9allocatorIS2_EEE6secondB7v160006Ev, symObjAddr: 0x4A14, symBinAddr: 0x10000FB6C, symSize: 0x24 }
  - { offsetInCU: 0xE5C0, offset: 0x430C9, size: 0x8, addend: 0x0, symName: __ZNKSt3__122__compressed_pair_elemINS_9allocatorIP5MediaEELi1ELb1EE5__getB7v160006Ev, symObjAddr: 0x4A38, symBinAddr: 0x10000FB90, symSize: 0x14 }
  - { offsetInCU: 0xE5E4, offset: 0x430ED, size: 0x8, addend: 0x0, symName: __ZNSt3__19allocatorIP5MediaE8allocateB7v160006Em, symObjAddr: 0x4A4C, symBinAddr: 0x10000FBA4, symSize: 0x58 }
  - { offsetInCU: 0xE616, offset: 0x4311F, size: 0x8, addend: 0x0, symName: __ZNSt3__16vectorINS_12basic_stringIcNS_11char_traitsIcEENS_9allocatorIcEEEENS4_IS6_EEE22__construct_one_at_endB7v160006IJRKS6_EEEvDpOT_, symObjAddr: 0x5F68, symBinAddr: 0x10000FBFC, symSize: 0x90 }
  - { offsetInCU: 0xE665, offset: 0x4316E, size: 0x8, addend: 0x0, symName: __ZNSt3__16vectorINS_12basic_stringIcNS_11char_traitsIcEENS_9allocatorIcEEEENS4_IS6_EEE21__push_back_slow_pathIRKS6_EEvOT_, symObjAddr: 0x5FF8, symBinAddr: 0x10000FC8C, symSize: 0xD8 }
  - { offsetInCU: 0xE6C1, offset: 0x431CA, size: 0x8, addend: 0x0, symName: __ZNSt3__116allocator_traitsINS_9allocatorINS_12basic_stringIcNS_11char_traitsIcEENS1_IcEEEEEEE9constructB7v160006IS6_JRKS6_EvvEEvRS7_PT_DpOT0_, symObjAddr: 0x60D0, symBinAddr: 0x10000FD64, symSize: 0x30 }
  - { offsetInCU: 0xE71A, offset: 0x43223, size: 0x8, addend: 0x0, symName: __ZNSt3__114__split_bufferINS_12basic_stringIcNS_11char_traitsIcEENS_9allocatorIcEEEERNS4_IS6_EEEC1EmmS8_, symObjAddr: 0x613C, symBinAddr: 0x10000FDD0, symSize: 0x44 }
  - { offsetInCU: 0xE76F, offset: 0x43278, size: 0x8, addend: 0x0, symName: __ZNSt3__114__split_bufferINS_12basic_stringIcNS_11char_traitsIcEENS_9allocatorIcEEEERNS4_IS6_EEED1Ev, symObjAddr: 0x6298, symBinAddr: 0x10000FF2C, symSize: 0x2C }
  - { offsetInCU: 0xE79A, offset: 0x432A3, size: 0x8, addend: 0x0, symName: __ZNSt3__114__split_bufferINS_12basic_stringIcNS_11char_traitsIcEENS_9allocatorIcEEEERNS4_IS6_EEEC2EmmS8_, symObjAddr: 0x62C4, symBinAddr: 0x10000FF58, symSize: 0xE0 }
  - { offsetInCU: 0xE80C, offset: 0x43315, size: 0x8, addend: 0x0, symName: __ZNSt3__117__compressed_pairIPNS_12basic_stringIcNS_11char_traitsIcEENS_9allocatorIcEEEERNS4_IS6_EEEC1B7v160006IDnS9_EEOT_OT0_, symObjAddr: 0x63A4, symBinAddr: 0x100010038, symSize: 0x3C }
  - { offsetInCU: 0xE863, offset: 0x4336C, size: 0x8, addend: 0x0, symName: __ZNSt3__114__split_bufferINS_12basic_stringIcNS_11char_traitsIcEENS_9allocatorIcEEEERNS4_IS6_EEE7__allocB7v160006Ev, symObjAddr: 0x63E0, symBinAddr: 0x100010074, symSize: 0x28 }
  - { offsetInCU: 0xE887, offset: 0x43390, size: 0x8, addend: 0x0, symName: __ZNSt3__114__split_bufferINS_12basic_stringIcNS_11char_traitsIcEENS_9allocatorIcEEEERNS4_IS6_EEE9__end_capB7v160006Ev, symObjAddr: 0x6408, symBinAddr: 0x10001009C, symSize: 0x28 }
  - { offsetInCU: 0xE8AB, offset: 0x433B4, size: 0x8, addend: 0x0, symName: __ZNSt3__117__compressed_pairIPNS_12basic_stringIcNS_11char_traitsIcEENS_9allocatorIcEEEERNS4_IS6_EEEC2B7v160006IDnS9_EEOT_OT0_, symObjAddr: 0x6430, symBinAddr: 0x1000100C4, symSize: 0x48 }
  - { offsetInCU: 0xE902, offset: 0x4340B, size: 0x8, addend: 0x0, symName: __ZNSt3__122__compressed_pair_elemIRNS_9allocatorINS_12basic_stringIcNS_11char_traitsIcEENS1_IcEEEEEELi1ELb0EEC2B7v160006IS8_vEEOT_, symObjAddr: 0x6478, symBinAddr: 0x10001010C, symSize: 0x20 }
  - { offsetInCU: 0xE944, offset: 0x4344D, size: 0x8, addend: 0x0, symName: __ZNSt3__117__compressed_pairIPNS_12basic_stringIcNS_11char_traitsIcEENS_9allocatorIcEEEERNS4_IS6_EEE6secondB7v160006Ev, symObjAddr: 0x6498, symBinAddr: 0x10001012C, symSize: 0x28 }
  - { offsetInCU: 0xE968, offset: 0x43471, size: 0x8, addend: 0x0, symName: __ZNSt3__122__compressed_pair_elemIRNS_9allocatorINS_12basic_stringIcNS_11char_traitsIcEENS1_IcEEEEEELi1ELb0EE5__getB7v160006Ev, symObjAddr: 0x64C0, symBinAddr: 0x100010154, symSize: 0x18 }
  - { offsetInCU: 0xE98C, offset: 0x43495, size: 0x8, addend: 0x0, symName: __ZNSt3__117__compressed_pairIPNS_12basic_stringIcNS_11char_traitsIcEENS_9allocatorIcEEEERNS4_IS6_EEE5firstB7v160006Ev, symObjAddr: 0x64D8, symBinAddr: 0x10001016C, symSize: 0x24 }
  - { offsetInCU: 0xE9B0, offset: 0x434B9, size: 0x8, addend: 0x0, symName: __ZNSt3__129_AllocatorDestroyRangeReverseINS_9allocatorINS_12basic_stringIcNS_11char_traitsIcEENS1_IcEEEEEENS_16reverse_iteratorIPS6_EEEC1B7v160006ERS7_RSA_SD_, symObjAddr: 0x66A8, symBinAddr: 0x10001033C, symSize: 0x44 }
  - { offsetInCU: 0xEA0B, offset: 0x43514, size: 0x8, addend: 0x0, symName: __ZNSt3__116allocator_traitsINS_9allocatorINS_12basic_stringIcNS_11char_traitsIcEENS1_IcEEEEEEE9constructB7v160006IS6_JS6_EvvEEvRS7_PT_DpOT0_, symObjAddr: 0x66EC, symBinAddr: 0x100010380, symSize: 0x30 }
  - { offsetInCU: 0xEA64, offset: 0x4356D, size: 0x8, addend: 0x0, symName: __ZNKSt3__116reverse_iteratorIPNS_12basic_stringIcNS_11char_traitsIcEENS_9allocatorIcEEEEEdeB7v160006Ev, symObjAddr: 0x671C, symBinAddr: 0x1000103B0, symSize: 0x28 }
  - { offsetInCU: 0xEA96, offset: 0x4359F, size: 0x8, addend: 0x0, symName: __ZNSt3__128__exception_guard_exceptionsINS_29_AllocatorDestroyRangeReverseINS_9allocatorINS_12basic_stringIcNS_11char_traitsIcEENS2_IcEEEEEENS_16reverse_iteratorIPS7_EEEEE10__completeB7v160006Ev, symObjAddr: 0x6744, symBinAddr: 0x1000103D8, symSize: 0x1C }
  - { offsetInCU: 0xEABA, offset: 0x435C3, size: 0x8, addend: 0x0, symName: __ZNSt3__128__exception_guard_exceptionsINS_29_AllocatorDestroyRangeReverseINS_9allocatorINS_12basic_stringIcNS_11char_traitsIcEENS2_IcEEEEEENS_16reverse_iteratorIPS7_EEEEED1B7v160006Ev, symObjAddr: 0x6760, symBinAddr: 0x1000103F4, symSize: 0x2C }
  - { offsetInCU: 0xEAE3, offset: 0x435EC, size: 0x8, addend: 0x0, symName: __ZNSt3__128__exception_guard_exceptionsINS_29_AllocatorDestroyRangeReverseINS_9allocatorINS_12basic_stringIcNS_11char_traitsIcEENS2_IcEEEEEENS_16reverse_iteratorIPS7_EEEEEC1B7v160006ESC_, symObjAddr: 0x678C, symBinAddr: 0x100010420, symSize: 0x34 }
  - { offsetInCU: 0xEB1B, offset: 0x43624, size: 0x8, addend: 0x0, symName: __ZNSt3__128__exception_guard_exceptionsINS_29_AllocatorDestroyRangeReverseINS_9allocatorINS_12basic_stringIcNS_11char_traitsIcEENS2_IcEEEEEENS_16reverse_iteratorIPS7_EEEEEC2B7v160006ESC_, symObjAddr: 0x67C0, symBinAddr: 0x100010454, symSize: 0x30 }
  - { offsetInCU: 0xEB53, offset: 0x4365C, size: 0x8, addend: 0x0, symName: __ZNSt3__129_AllocatorDestroyRangeReverseINS_9allocatorINS_12basic_stringIcNS_11char_traitsIcEENS1_IcEEEEEENS_16reverse_iteratorIPS6_EEEC2B7v160006ERS7_RSA_SD_, symObjAddr: 0x67F0, symBinAddr: 0x100010484, symSize: 0x38 }
  - { offsetInCU: 0xEBA9, offset: 0x436B2, size: 0x8, addend: 0x0, symName: __ZNSt3__128__exception_guard_exceptionsINS_29_AllocatorDestroyRangeReverseINS_9allocatorINS_12basic_stringIcNS_11char_traitsIcEENS2_IcEEEEEENS_16reverse_iteratorIPS7_EEEEED2B7v160006Ev, symObjAddr: 0x6864, symBinAddr: 0x1000104F8, symSize: 0x50 }
  - { offsetInCU: 0xEBD2, offset: 0x436DB, size: 0x8, addend: 0x0, symName: __ZNKSt3__129_AllocatorDestroyRangeReverseINS_9allocatorINS_12basic_stringIcNS_11char_traitsIcEENS1_IcEEEEEENS_16reverse_iteratorIPS6_EEEclB7v160006Ev, symObjAddr: 0x68B4, symBinAddr: 0x100010548, symSize: 0xB4 }
  - { offsetInCU: 0xEBF7, offset: 0x43700, size: 0x8, addend: 0x0, symName: __ZNSt3__116reverse_iteratorINS0_IPNS_12basic_stringIcNS_11char_traitsIcEENS_9allocatorIcEEEEEEEC1B7v160006ES8_, symObjAddr: 0x69D8, symBinAddr: 0x10001066C, symSize: 0x3C }
  - { offsetInCU: 0xEC2E, offset: 0x43737, size: 0x8, addend: 0x0, symName: __ZNSt3__116reverse_iteratorINS0_IPNS_12basic_stringIcNS_11char_traitsIcEENS_9allocatorIcEEEEEEEppB7v160006Ev, symObjAddr: 0x6A98, symBinAddr: 0x10001072C, symSize: 0x30 }
  - { offsetInCU: 0xEC52, offset: 0x4375B, size: 0x8, addend: 0x0, symName: __ZNKSt3__116reverse_iteratorINS0_IPNS_12basic_stringIcNS_11char_traitsIcEENS_9allocatorIcEEEEEEE4baseB7v160006Ev, symObjAddr: 0x6AC8, symBinAddr: 0x10001075C, symSize: 0x24 }
  - { offsetInCU: 0xEC7B, offset: 0x43784, size: 0x8, addend: 0x0, symName: __ZNSt3__119__to_address_helperINS_16reverse_iteratorINS1_IPNS_12basic_stringIcNS_11char_traitsIcEENS_9allocatorIcEEEEEEEEvE6__callB7v160006ERKSA_, symObjAddr: 0x6AEC, symBinAddr: 0x100010780, symSize: 0x38 }
  - { offsetInCU: 0xEC9E, offset: 0x437A7, size: 0x8, addend: 0x0, symName: __ZNKSt3__116reverse_iteratorINS0_IPNS_12basic_stringIcNS_11char_traitsIcEENS_9allocatorIcEEEEEEEptB7v160006Ev, symObjAddr: 0x6B24, symBinAddr: 0x1000107B8, symSize: 0x4C }
  - { offsetInCU: 0xECC2, offset: 0x437CB, size: 0x8, addend: 0x0, symName: __ZNSt3__116reverse_iteratorIPNS_12basic_stringIcNS_11char_traitsIcEENS_9allocatorIcEEEEEpLB7v160006El, symObjAddr: 0x6C4C, symBinAddr: 0x1000108E0, symSize: 0x30 }
  - { offsetInCU: 0xECF4, offset: 0x437FD, size: 0x8, addend: 0x0, symName: __ZNSt3__116reverse_iteratorIPNS_12basic_stringIcNS_11char_traitsIcEENS_9allocatorIcEEEEEmmB7v160006Ev, symObjAddr: 0x6C7C, symBinAddr: 0x100010910, symSize: 0x20 }
  - { offsetInCU: 0xED18, offset: 0x43821, size: 0x8, addend: 0x0, symName: __ZNSt3__116reverse_iteratorINS0_IPNS_12basic_stringIcNS_11char_traitsIcEENS_9allocatorIcEEEEEEEC2B7v160006ES8_, symObjAddr: 0x6C9C, symBinAddr: 0x100010930, symSize: 0x2C }
  - { offsetInCU: 0xED4F, offset: 0x43858, size: 0x8, addend: 0x0, symName: __ZNSt3__114__split_bufferINS_12basic_stringIcNS_11char_traitsIcEENS_9allocatorIcEEEERNS4_IS6_EEED2Ev, symObjAddr: 0x6CC8, symBinAddr: 0x10001095C, symSize: 0x8C }
  - { offsetInCU: 0xED7A, offset: 0x43883, size: 0x8, addend: 0x0, symName: __ZNSt3__114__split_bufferINS_12basic_stringIcNS_11char_traitsIcEENS_9allocatorIcEEEERNS4_IS6_EEE5clearB7v160006Ev, symObjAddr: 0x6D54, symBinAddr: 0x1000109E8, symSize: 0x28 }
  - { offsetInCU: 0xED9E, offset: 0x438A7, size: 0x8, addend: 0x0, symName: __ZNKSt3__114__split_bufferINS_12basic_stringIcNS_11char_traitsIcEENS_9allocatorIcEEEERNS4_IS6_EEE8capacityB7v160006Ev, symObjAddr: 0x6D7C, symBinAddr: 0x100010A10, symSize: 0x40 }
  - { offsetInCU: 0xEDC2, offset: 0x438CB, size: 0x8, addend: 0x0, symName: __ZNSt3__114__split_bufferINS_12basic_stringIcNS_11char_traitsIcEENS_9allocatorIcEEEERNS4_IS6_EEE17__destruct_at_endB7v160006EPS6_, symObjAddr: 0x6DBC, symBinAddr: 0x100010A50, symSize: 0x2C }
  - { offsetInCU: 0xEDF4, offset: 0x438FD, size: 0x8, addend: 0x0, symName: __ZNSt3__114__split_bufferINS_12basic_stringIcNS_11char_traitsIcEENS_9allocatorIcEEEERNS4_IS6_EEE17__destruct_at_endB7v160006EPS6_NS_17integral_constantIbLb0EEE, symObjAddr: 0x6DE8, symBinAddr: 0x100010A7C, symSize: 0x80 }
  - { offsetInCU: 0xEE33, offset: 0x4393C, size: 0x8, addend: 0x0, symName: __ZNKSt3__114__split_bufferINS_12basic_stringIcNS_11char_traitsIcEENS_9allocatorIcEEEERNS4_IS6_EEE9__end_capB7v160006Ev, symObjAddr: 0x6E68, symBinAddr: 0x100010AFC, symSize: 0x28 }
  - { offsetInCU: 0xEE57, offset: 0x43960, size: 0x8, addend: 0x0, symName: __ZNKSt3__117__compressed_pairIPNS_12basic_stringIcNS_11char_traitsIcEENS_9allocatorIcEEEERNS4_IS6_EEE5firstB7v160006Ev, symObjAddr: 0x6E90, symBinAddr: 0x100010B24, symSize: 0x24 }
  - { offsetInCU: 0xEE80, offset: 0x43989, size: 0x8, addend: 0x0, symName: __ZNSt3__16vectorIP5MediaNS_9allocatorIS2_EEE22__construct_one_at_endB7v160006IJRKS2_EEEvDpOT_, symObjAddr: 0x6EB4, symBinAddr: 0x100010B48, symSize: 0x90 }
  - { offsetInCU: 0xEECF, offset: 0x439D8, size: 0x8, addend: 0x0, symName: __ZNSt3__16vectorIP5MediaNS_9allocatorIS2_EEE21__push_back_slow_pathIRKS2_EEvOT_, symObjAddr: 0x6F44, symBinAddr: 0x100010BD8, symSize: 0xD8 }
  - { offsetInCU: 0xEF2B, offset: 0x43A34, size: 0x8, addend: 0x0, symName: __ZNSt3__116allocator_traitsINS_9allocatorIP5MediaEEE9constructB7v160006IS3_JRKS3_EvvEEvRS4_PT_DpOT0_, symObjAddr: 0x701C, symBinAddr: 0x100010CB0, symSize: 0x30 }
  - { offsetInCU: 0xEF84, offset: 0x43A8D, size: 0x8, addend: 0x0, symName: __ZNSt3__114__split_bufferIP5MediaRNS_9allocatorIS2_EEEC1EmmS5_, symObjAddr: 0x7078, symBinAddr: 0x100010D0C, symSize: 0x44 }
  - { offsetInCU: 0xEFD9, offset: 0x43AE2, size: 0x8, addend: 0x0, symName: __ZNSt3__114__split_bufferIP5MediaRNS_9allocatorIS2_EEED1Ev, symObjAddr: 0x71D4, symBinAddr: 0x100010E68, symSize: 0x2C }
  - { offsetInCU: 0xF004, offset: 0x43B0D, size: 0x8, addend: 0x0, symName: __ZNSt3__114__split_bufferIP5MediaRNS_9allocatorIS2_EEEC2EmmS5_, symObjAddr: 0x7200, symBinAddr: 0x100010E94, symSize: 0xD4 }
  - { offsetInCU: 0xF076, offset: 0x43B7F, size: 0x8, addend: 0x0, symName: __ZNSt3__117__compressed_pairIPP5MediaRNS_9allocatorIS2_EEEC1B7v160006IDnS6_EEOT_OT0_, symObjAddr: 0x72D4, symBinAddr: 0x100010F68, symSize: 0x3C }
  - { offsetInCU: 0xF0CD, offset: 0x43BD6, size: 0x8, addend: 0x0, symName: __ZNSt3__114__split_bufferIP5MediaRNS_9allocatorIS2_EEE7__allocB7v160006Ev, symObjAddr: 0x7310, symBinAddr: 0x100010FA4, symSize: 0x28 }
  - { offsetInCU: 0xF0F1, offset: 0x43BFA, size: 0x8, addend: 0x0, symName: __ZNSt3__114__split_bufferIP5MediaRNS_9allocatorIS2_EEE9__end_capB7v160006Ev, symObjAddr: 0x7338, symBinAddr: 0x100010FCC, symSize: 0x28 }
  - { offsetInCU: 0xF115, offset: 0x43C1E, size: 0x8, addend: 0x0, symName: __ZNSt3__117__compressed_pairIPP5MediaRNS_9allocatorIS2_EEEC2B7v160006IDnS6_EEOT_OT0_, symObjAddr: 0x7360, symBinAddr: 0x100010FF4, symSize: 0x48 }
  - { offsetInCU: 0xF16C, offset: 0x43C75, size: 0x8, addend: 0x0, symName: __ZNSt3__122__compressed_pair_elemIRNS_9allocatorIP5MediaEELi1ELb0EEC2B7v160006IS5_vEEOT_, symObjAddr: 0x73A8, symBinAddr: 0x10001103C, symSize: 0x20 }
  - { offsetInCU: 0xF1AE, offset: 0x43CB7, size: 0x8, addend: 0x0, symName: __ZNSt3__117__compressed_pairIPP5MediaRNS_9allocatorIS2_EEE6secondB7v160006Ev, symObjAddr: 0x73C8, symBinAddr: 0x10001105C, symSize: 0x28 }
  - { offsetInCU: 0xF1D2, offset: 0x43CDB, size: 0x8, addend: 0x0, symName: __ZNSt3__122__compressed_pair_elemIRNS_9allocatorIP5MediaEELi1ELb0EE5__getB7v160006Ev, symObjAddr: 0x73F0, symBinAddr: 0x100011084, symSize: 0x18 }
  - { offsetInCU: 0xF1F6, offset: 0x43CFF, size: 0x8, addend: 0x0, symName: __ZNSt3__117__compressed_pairIPP5MediaRNS_9allocatorIS2_EEE5firstB7v160006Ev, symObjAddr: 0x7408, symBinAddr: 0x10001109C, symSize: 0x24 }
  - { offsetInCU: 0xF23D, offset: 0x43D46, size: 0x8, addend: 0x0, symName: __ZNKSt3__111__move_loopINS_17_ClassicAlgPolicyEEclB7v160006INS_16reverse_iteratorIPP5MediaEES8_S8_EENS_4pairIT_T1_EESA_T0_SB_, symObjAddr: 0x7798, symBinAddr: 0x10001142C, symSize: 0xA0 }
  - { offsetInCU: 0xF2A6, offset: 0x43DAF, size: 0x8, addend: 0x0, symName: __ZNSt3__119__unwrap_range_implINS_16reverse_iteratorIPP5MediaEES5_E8__unwrapB7v160006ES5_S5_, symObjAddr: 0x7984, symBinAddr: 0x100011618, symSize: 0x84 }
  - { offsetInCU: 0xF2DC, offset: 0x43DE5, size: 0x8, addend: 0x0, symName: __ZNSt3__14pairINS_16reverse_iteratorIPP5MediaEES5_EC1B7v160006IS5_S5_LPv0EEEOT_OT0_, symObjAddr: 0x7A08, symBinAddr: 0x10001169C, symSize: 0x3C }
  - { offsetInCU: 0xF33A, offset: 0x43E43, size: 0x8, addend: 0x0, symName: __ZNSt3__14pairINS_16reverse_iteratorIPP5MediaEES5_EC2B7v160006IS5_S5_LPv0EEEOT_OT0_, symObjAddr: 0x7A44, symBinAddr: 0x1000116D8, symSize: 0x34 }
  - { offsetInCU: 0xF39D, offset: 0x43EA6, size: 0x8, addend: 0x0, symName: __ZNSt3__18_IterOpsINS_17_ClassicAlgPolicyEE11__iter_moveB7v160006IRNS_16reverse_iteratorIPP5MediaEEEENS_9enable_ifIXsr12is_referenceIDTdeclsr3stdE7declvalIRT_EEEEE5valueEDTclsr3stdE4movedeclsr3stdE7declvalISC_EEEEE4typeEOSB_, symObjAddr: 0x7A78, symBinAddr: 0x10001170C, symSize: 0x28 }
  - { offsetInCU: 0xF3C9, offset: 0x43ED2, size: 0x8, addend: 0x0, symName: __ZNKSt3__116reverse_iteratorIPP5MediaEdeB7v160006Ev, symObjAddr: 0x7AA0, symBinAddr: 0x100011734, symSize: 0x28 }
  - { offsetInCU: 0xF3FB, offset: 0x43F04, size: 0x8, addend: 0x0, symName: __ZNSt3__18_IterOpsINS_17_ClassicAlgPolicyEE25__validate_iter_referenceB7v160006IRNS_16reverse_iteratorIPP5MediaEEEEvv, symObjAddr: 0x7AC8, symBinAddr: 0x10001175C, symSize: 0x4 }
  - { offsetInCU: 0xF419, offset: 0x43F22, size: 0x8, addend: 0x0, symName: __ZNSt3__118__unwrap_iter_implINS_16reverse_iteratorIPP5MediaEELb0EE8__unwrapB7v160006ES5_, symObjAddr: 0x7ACC, symBinAddr: 0x100011760, symSize: 0x24 }
  - { offsetInCU: 0xF43C, offset: 0x43F45, size: 0x8, addend: 0x0, symName: __ZNSt3__119__unwrap_range_implINS_16reverse_iteratorIPP5MediaEES5_E8__rewrapB7v160006ES5_S5_, symObjAddr: 0x7AF0, symBinAddr: 0x100011784, symSize: 0x5C }
  - { offsetInCU: 0xF46D, offset: 0x43F76, size: 0x8, addend: 0x0, symName: __ZNSt3__118__unwrap_iter_implINS_16reverse_iteratorIPP5MediaEELb0EE8__rewrapB7v160006ES5_S5_, symObjAddr: 0x7B4C, symBinAddr: 0x1000117E0, symSize: 0x2C }
  - { offsetInCU: 0xF49B, offset: 0x43FA4, size: 0x8, addend: 0x0, symName: __ZNSt3__114__split_bufferIP5MediaRNS_9allocatorIS2_EEED2Ev, symObjAddr: 0x7B78, symBinAddr: 0x10001180C, symSize: 0x8C }
  - { offsetInCU: 0xF4C6, offset: 0x43FCF, size: 0x8, addend: 0x0, symName: __ZNSt3__114__split_bufferIP5MediaRNS_9allocatorIS2_EEE5clearB7v160006Ev, symObjAddr: 0x7C04, symBinAddr: 0x100011898, symSize: 0x28 }
  - { offsetInCU: 0xF4EA, offset: 0x43FF3, size: 0x8, addend: 0x0, symName: __ZNKSt3__114__split_bufferIP5MediaRNS_9allocatorIS2_EEE8capacityB7v160006Ev, symObjAddr: 0x7C2C, symBinAddr: 0x1000118C0, symSize: 0x40 }
  - { offsetInCU: 0xF50E, offset: 0x44017, size: 0x8, addend: 0x0, symName: __ZNSt3__114__split_bufferIP5MediaRNS_9allocatorIS2_EEE17__destruct_at_endB7v160006EPS2_, symObjAddr: 0x7C6C, symBinAddr: 0x100011900, symSize: 0x2C }
  - { offsetInCU: 0xF540, offset: 0x44049, size: 0x8, addend: 0x0, symName: __ZNSt3__114__split_bufferIP5MediaRNS_9allocatorIS2_EEE17__destruct_at_endB7v160006EPS2_NS_17integral_constantIbLb0EEE, symObjAddr: 0x7C98, symBinAddr: 0x10001192C, symSize: 0x80 }
  - { offsetInCU: 0xF57F, offset: 0x44088, size: 0x8, addend: 0x0, symName: __ZNKSt3__114__split_bufferIP5MediaRNS_9allocatorIS2_EEE9__end_capB7v160006Ev, symObjAddr: 0x7D18, symBinAddr: 0x1000119AC, symSize: 0x28 }
  - { offsetInCU: 0xF5A3, offset: 0x440AC, size: 0x8, addend: 0x0, symName: __ZNKSt3__117__compressed_pairIPP5MediaRNS_9allocatorIS2_EEE5firstB7v160006Ev, symObjAddr: 0x7D40, symBinAddr: 0x1000119D4, symSize: 0x24 }
  - { offsetInCU: 0x7EDA, offset: 0x4C0C1, size: 0x8, addend: 0x0, symName: __ZN18CustomerCollectionC2Ev, symObjAddr: 0x0, symBinAddr: 0x1000119F8, symSize: 0x2C }
  - { offsetInCU: 0x7F04, offset: 0x4C0EB, size: 0x8, addend: 0x0, symName: __ZN18CustomerCollectionC1Ev, symObjAddr: 0x2C, symBinAddr: 0x100011A24, symSize: 0x2C }
  - { offsetInCU: 0x7F2E, offset: 0x4C115, size: 0x8, addend: 0x0, symName: __ZN18CustomerCollection11getCustomerEi, symObjAddr: 0x58, symBinAddr: 0x100011A50, symSize: 0x2C }
  - { offsetInCU: 0x7F62, offset: 0x4C149, size: 0x8, addend: 0x0, symName: __ZN18CustomerCollection6InsertEiRKNSt3__112basic_stringIcNS0_11char_traitsIcEENS0_9allocatorIcEEEE, symObjAddr: 0x84, symBinAddr: 0x100011A7C, symSize: 0xD4 }
  - { offsetInCU: 0x7FB3, offset: 0x4C19A, size: 0x8, addend: 0x0, symName: __ZN18CustomerCollection8RetrieveEiRP8Customer, symObjAddr: 0x158, symBinAddr: 0x100011B50, symSize: 0x38 }
  - { offsetInCU: 0x7FF5, offset: 0x4C1DC, size: 0x8, addend: 0x0, symName: __ZN18CustomerCollection11ReceiveDataENSt3__112basic_stringIcNS0_11char_traitsIcEENS0_9allocatorIcEEEE, symObjAddr: 0x190, symBinAddr: 0x100011B88, symSize: 0xC8 }
  - { offsetInCU: 0x804B, offset: 0x4C232, size: 0x8, addend: 0x0, symName: __ZNK18CustomerCollection17ParseCustomerLineENSt3__112basic_stringIcNS0_11char_traitsIcEENS0_9allocatorIcEEEERiRS6_, symObjAddr: 0x28C, symBinAddr: 0x100011C50, symSize: 0x1BC }
  - { offsetInCU: 0x80C9, offset: 0x4C2B0, size: 0x8, addend: 0x0, symName: __ZNK18CustomerCollection7DisplayEv, symObjAddr: 0x448, symBinAddr: 0x100011E0C, symSize: 0x24 }
  - { offsetInCU: 0x81AE, offset: 0x4C395, size: 0x8, addend: 0x0, symName: __ZNSt3__118basic_stringstreamIcNS_11char_traitsIcEENS_9allocatorIcEEEC1B7v160006ERKNS_12basic_stringIcS2_S4_EEj, symObjAddr: 0x46C, symBinAddr: 0x100011E30, symSize: 0x110 }
  - { offsetInCU: 0x81FA, offset: 0x4C3E1, size: 0x8, addend: 0x0, symName: __ZNSt3__118basic_stringstreamIcNS_11char_traitsIcEENS_9allocatorIcEEED1Ev, symObjAddr: 0xA30, symBinAddr: 0x100011F40, symSize: 0x40 }
  - { offsetInCU: 0x8226, offset: 0x4C40D, size: 0x8, addend: 0x0, symName: __ZNSt3__118basic_stringstreamIcNS_11char_traitsIcEENS_9allocatorIcEEED2Ev, symObjAddr: 0x2444, symBinAddr: 0x100011F80, symSize: 0x6C }
  - { offsetInCU: 0x825E, offset: 0x4C445, size: 0x8, addend: 0x0, symName: __ZThn16_NSt3__118basic_stringstreamIcNS_11char_traitsIcEENS_9allocatorIcEEED1Ev, symObjAddr: 0x24B0, symBinAddr: 0x100011FEC, symSize: 0x1C }
  - { offsetInCU: 0x8275, offset: 0x4C45C, size: 0x8, addend: 0x0, symName: __ZTv0_n24_NSt3__118basic_stringstreamIcNS_11char_traitsIcEENS_9allocatorIcEEED1Ev, symObjAddr: 0x24CC, symBinAddr: 0x100012008, symSize: 0x28 }
  - { offsetInCU: 0x8291, offset: 0x4C478, size: 0x8, addend: 0x0, symName: __ZNSt3__115basic_stringbufIcNS_11char_traitsIcEENS_9allocatorIcEEED1Ev, symObjAddr: 0x24F4, symBinAddr: 0x100012030, symSize: 0x2C }
  - { offsetInCU: 0x82BD, offset: 0x4C4A4, size: 0x8, addend: 0x0, symName: __ZNSt3__115basic_stringbufIcNS_11char_traitsIcEENS_9allocatorIcEEED2Ev, symObjAddr: 0x2520, symBinAddr: 0x10001205C, symSize: 0x48 }
  - { offsetInCU: 0x82E9, offset: 0x4C4D0, size: 0x8, addend: 0x0, symName: __ZNSt3__19basic_iosIcNS_11char_traitsIcEEEC2B7v160006Ev, symObjAddr: 0x2568, symBinAddr: 0x1000120A4, symSize: 0x44 }
  - { offsetInCU: 0x8312, offset: 0x4C4F9, size: 0x8, addend: 0x0, symName: __ZNSt3__114basic_iostreamIcNS_11char_traitsIcEEEC2B7v160006EPNS_15basic_streambufIcS2_EE, symObjAddr: 0x25AC, symBinAddr: 0x1000120E8, symSize: 0xAC }
  - { offsetInCU: 0x8356, offset: 0x4C53D, size: 0x8, addend: 0x0, symName: __ZNSt3__115basic_stringbufIcNS_11char_traitsIcEENS_9allocatorIcEEEC1B7v160006ERKNS_12basic_stringIcS2_S4_EEj, symObjAddr: 0x2658, symBinAddr: 0x100012194, symSize: 0x3C }
  - { offsetInCU: 0x839B, offset: 0x4C582, size: 0x8, addend: 0x0, symName: __ZNSt3__18ios_baseC2B7v160006Ev, symObjAddr: 0x2694, symBinAddr: 0x1000121D0, symSize: 0x24 }
  - { offsetInCU: 0x83C4, offset: 0x4C5AB, size: 0x8, addend: 0x0, symName: __ZNSt3__113basic_istreamIcNS_11char_traitsIcEEEC2B7v160006EPNS_15basic_streambufIcS2_EE, symObjAddr: 0x26B8, symBinAddr: 0x1000121F4, symSize: 0x64 }
  - { offsetInCU: 0x8407, offset: 0x4C5EE, size: 0x8, addend: 0x0, symName: __ZNSt3__113basic_ostreamIcNS_11char_traitsIcEEEC2B7v160006Ev, symObjAddr: 0x271C, symBinAddr: 0x100012258, symSize: 0x34 }
  - { offsetInCU: 0x843C, offset: 0x4C623, size: 0x8, addend: 0x0, symName: __ZNSt3__19basic_iosIcNS_11char_traitsIcEEE4initB7v160006EPNS_15basic_streambufIcS2_EE, symObjAddr: 0x2750, symBinAddr: 0x10001228C, symSize: 0x44 }
  - { offsetInCU: 0x8471, offset: 0x4C658, size: 0x8, addend: 0x0, symName: __ZNSt3__115basic_stringbufIcNS_11char_traitsIcEENS_9allocatorIcEEEC2B7v160006ERKNS_12basic_stringIcS2_S4_EEj, symObjAddr: 0x2794, symBinAddr: 0x1000122D0, symSize: 0xB4 }
  - { offsetInCU: 0x84B6, offset: 0x4C69D, size: 0x8, addend: 0x0, symName: __ZNSt3__112basic_stringIcNS_11char_traitsIcEENS_9allocatorIcEEEC1B7v160006ERKS4_, symObjAddr: 0x2848, symBinAddr: 0x100012384, symSize: 0x34 }
  - { offsetInCU: 0x84EE, offset: 0x4C6D5, size: 0x8, addend: 0x0, symName: __ZNSt3__112basic_stringIcNS_11char_traitsIcEENS_9allocatorIcEEEC2B7v160006ERKS4_, symObjAddr: 0x287C, symBinAddr: 0x1000123B8, symSize: 0x50 }
  - { offsetInCU: 0x6BD8, offset: 0x5332A, size: 0x8, addend: 0x0, symName: __ZN5DramaC2Ev, symObjAddr: 0x0, symBinAddr: 0x100012408, symSize: 0xA4 }
  - { offsetInCU: 0x6C02, offset: 0x53354, size: 0x8, addend: 0x0, symName: __ZN5DramaC1Ev, symObjAddr: 0xD0, symBinAddr: 0x1000124AC, symSize: 0x2C }
  - { offsetInCU: 0x6C2C, offset: 0x5337E, size: 0x8, addend: 0x0, symName: __ZN5DramaD2Ev, symObjAddr: 0xFC, symBinAddr: 0x1000124D8, symSize: 0x2C }
  - { offsetInCU: 0x6C56, offset: 0x533A8, size: 0x8, addend: 0x0, symName: __ZN5DramaD1Ev, symObjAddr: 0x128, symBinAddr: 0x100012504, symSize: 0x2C }
  - { offsetInCU: 0x6C80, offset: 0x533D2, size: 0x8, addend: 0x0, symName: __ZN5DramaD0Ev, symObjAddr: 0x154, symBinAddr: 0x100012530, symSize: 0x30 }
  - { offsetInCU: 0x6CAB, offset: 0x533FD, size: 0x8, addend: 0x0, symName: __ZN5Drama7setDataERNSt3__118basic_stringstreamIcNS0_11char_traitsIcEENS0_9allocatorIcEEEE, symObjAddr: 0x184, symBinAddr: 0x100012560, symSize: 0x6C }
  - { offsetInCU: 0x6CDF, offset: 0x53431, size: 0x8, addend: 0x0, symName: __ZNK5Drama11PrintHeaderEv, symObjAddr: 0x1F0, symBinAddr: 0x1000125CC, symSize: 0x158 }
  - { offsetInCU: 0x6D04, offset: 0x53456, size: 0x8, addend: 0x0, symName: __ZlsRNSt3__113basic_ostreamIcNS_11char_traitsIcEEEERK5Drama, symObjAddr: 0x4F0, symBinAddr: 0x100012724, symSize: 0x38 }
  - { offsetInCU: 0x6D3F, offset: 0x53491, size: 0x8, addend: 0x0, symName: __ZNK5DramaltERK5Media, symObjAddr: 0x528, symBinAddr: 0x10001275C, symSize: 0x258 }
  - { offsetInCU: 0x6D86, offset: 0x534D8, size: 0x8, addend: 0x0, symName: __ZN5DramaC1ERKS_, symObjAddr: 0x780, symBinAddr: 0x1000129B4, symSize: 0x34 }
  - { offsetInCU: 0x6DBA, offset: 0x5350C, size: 0x8, addend: 0x0, symName: __ZNK5DramagtERK5Media, symObjAddr: 0x9B0, symBinAddr: 0x1000129E8, symSize: 0x78 }
  - { offsetInCU: 0x6DEE, offset: 0x53540, size: 0x8, addend: 0x0, symName: __ZNK5DramaeqERK5Media, symObjAddr: 0xA28, symBinAddr: 0x100012A60, symSize: 0x208 }
  - { offsetInCU: 0x6E31, offset: 0x53583, size: 0x8, addend: 0x0, symName: __ZNK5Drama7DisplayERNSt3__113basic_ostreamIcNS0_11char_traitsIcEEEE, symObjAddr: 0xC30, symBinAddr: 0x100012C68, symSize: 0x234 }
  - { offsetInCU: 0x6E64, offset: 0x535B6, size: 0x8, addend: 0x0, symName: __ZN5DramaC2ERKS_, symObjAddr: 0xFBC, symBinAddr: 0x100012E9C, symSize: 0x4C }
  - { offsetInCU: 0x614F, offset: 0x59765, size: 0x8, addend: 0x0, symName: __ZN9HashTableC2Ev, symObjAddr: 0x0, symBinAddr: 0x100012EE8, symSize: 0x68 }
  - { offsetInCU: 0x6195, offset: 0x597AB, size: 0x8, addend: 0x0, symName: __ZN9HashTableC1Ev, symObjAddr: 0x68, symBinAddr: 0x100012F50, symSize: 0x2C }
  - { offsetInCU: 0x61BF, offset: 0x597D5, size: 0x8, addend: 0x0, symName: __ZN9HashTableD2Ev, symObjAddr: 0x94, symBinAddr: 0x100012F7C, symSize: 0x34 }
  - { offsetInCU: 0x61E9, offset: 0x597FF, size: 0x8, addend: 0x0, symName: __ZN9HashTable5ClearEv, symObjAddr: 0xC8, symBinAddr: 0x100012FB0, symSize: 0xBC }
  - { offsetInCU: 0x622B, offset: 0x59841, size: 0x8, addend: 0x0, symName: __ZN9HashTableD1Ev, symObjAddr: 0x190, symBinAddr: 0x10001306C, symSize: 0x2C }
  - { offsetInCU: 0x6255, offset: 0x5986B, size: 0x8, addend: 0x0, symName: __ZNK9HashTable8getValueEi, symObjAddr: 0x1BC, symBinAddr: 0x100013098, symSize: 0x7C }
  - { offsetInCU: 0x6297, offset: 0x598AD, size: 0x8, addend: 0x0, symName: __ZNK9HashTable10CreateHashEi, symObjAddr: 0x238, symBinAddr: 0x100013114, symSize: 0x74 }
  - { offsetInCU: 0x62D9, offset: 0x598EF, size: 0x8, addend: 0x0, symName: __ZN9HashTable14InsertKeyValueEiRK8Customer, symObjAddr: 0x2AC, symBinAddr: 0x100013188, symSize: 0xE8 }
  - { offsetInCU: 0x6329, offset: 0x5993F, size: 0x8, addend: 0x0, symName: __ZNK9HashTable13RetrieveValueEiRP8Customer, symObjAddr: 0x394, symBinAddr: 0x100013270, symSize: 0x114 }
  - { offsetInCU: 0x6379, offset: 0x5998F, size: 0x8, addend: 0x0, symName: __ZNK9HashTable8CalcHashEi, symObjAddr: 0x4A8, symBinAddr: 0x100013384, symSize: 0x28 }
  - { offsetInCU: 0x63AD, offset: 0x599C3, size: 0x8, addend: 0x0, symName: __ZNK9HashTable7DisplayEv, symObjAddr: 0x4D0, symBinAddr: 0x1000133AC, symSize: 0x8C }
  - { offsetInCU: 0x63EF, offset: 0x59A05, size: 0x8, addend: 0x0, symName: __ZNK9HashTable10DoubleHashEi, symObjAddr: 0x55C, symBinAddr: 0x100013438, symSize: 0x80 }
  - { offsetInCU: 0x643F, offset: 0x59A55, size: 0x8, addend: 0x0, symName: __ZNK9HashTable14CalcDoubleHashEi, symObjAddr: 0x5DC, symBinAddr: 0x1000134B8, symSize: 0x2C }
  - { offsetInCU: 0x66E8, offset: 0x6017B, size: 0x8, addend: 0x0, symName: __ZNSt3__122__make_exception_guardB7v160006INS_6vectorINS_12basic_stringIcNS_11char_traitsIcEENS_9allocatorIcEEEENS5_IS7_EEE16__destroy_vectorEEENS_28__exception_guard_exceptionsIT_EESC_, symObjAddr: 0x6F4, symBinAddr: 0x100013A10, symSize: 0x40 }
  - { offsetInCU: 0x8D98, offset: 0x6282B, size: 0x8, addend: 0x0, symName: __ZN7HistoryC2Ev, symObjAddr: 0x0, symBinAddr: 0x1000134E4, symSize: 0x50 }
  - { offsetInCU: 0x8DC2, offset: 0x62855, size: 0x8, addend: 0x0, symName: __ZN7HistoryC1Ev, symObjAddr: 0x50, symBinAddr: 0x100013534, symSize: 0x2C }
  - { offsetInCU: 0x8DEC, offset: 0x6287F, size: 0x8, addend: 0x0, symName: __ZN7HistoryD2Ev, symObjAddr: 0x7C, symBinAddr: 0x100013560, symSize: 0x2C }
  - { offsetInCU: 0x8E16, offset: 0x628A9, size: 0x8, addend: 0x0, symName: __ZN7HistoryD1Ev, symObjAddr: 0xA8, symBinAddr: 0x10001358C, symSize: 0x2C }
  - { offsetInCU: 0x8E40, offset: 0x628D3, size: 0x8, addend: 0x0, symName: __ZN7HistoryD0Ev, symObjAddr: 0xD4, symBinAddr: 0x1000135B8, symSize: 0x30 }
  - { offsetInCU: 0x8E6A, offset: 0x628FD, size: 0x8, addend: 0x0, symName: __ZN7History14ProcessHistoryER18CustomerCollection, symObjAddr: 0x104, symBinAddr: 0x1000135E8, symSize: 0x240 }
  - { offsetInCU: 0x8ED8, offset: 0x6296B, size: 0x8, addend: 0x0, symName: __ZNKSt3__16vectorINS_12basic_stringIcNS_11char_traitsIcEENS_9allocatorIcEEEENS4_IS6_EEE5emptyB7v160006Ev, symObjAddr: 0x490, symBinAddr: 0x100013828, symSize: 0x28 }
  - { offsetInCU: 0x8EFC, offset: 0x6298F, size: 0x8, addend: 0x0, symName: __ZNSt3__16vectorINS_12basic_stringIcNS_11char_traitsIcEENS_9allocatorIcEEEENS4_IS6_EEEC1ERKS8_, symObjAddr: 0x4B8, symBinAddr: 0x100013850, symSize: 0x34 }
  - { offsetInCU: 0x8F36, offset: 0x629C9, size: 0x8, addend: 0x0, symName: __ZNKSt3__16vectorINS_12basic_stringIcNS_11char_traitsIcEENS_9allocatorIcEEEENS4_IS6_EEEixB7v160006Em, symObjAddr: 0x514, symBinAddr: 0x100013884, symSize: 0x2C }
  - { offsetInCU: 0x8F6C, offset: 0x629FF, size: 0x8, addend: 0x0, symName: __ZNSt3__16vectorINS_12basic_stringIcNS_11char_traitsIcEENS_9allocatorIcEEEENS4_IS6_EEEC2ERKS8_, symObjAddr: 0x56C, symBinAddr: 0x1000138B0, symSize: 0x114 }
  - { offsetInCU: 0x8FD4, offset: 0x62A67, size: 0x8, addend: 0x0, symName: __ZNSt3__116allocator_traitsINS_9allocatorINS_12basic_stringIcNS_11char_traitsIcEENS1_IcEEEEEEE37select_on_container_copy_constructionB7v160006IS7_vvEES7_RKS7_, symObjAddr: 0x680, symBinAddr: 0x1000139C4, symSize: 0x10 }
  - { offsetInCU: 0x900F, offset: 0x62AA2, size: 0x8, addend: 0x0, symName: __ZNSt3__117__compressed_pairIPNS_12basic_stringIcNS_11char_traitsIcEENS_9allocatorIcEEEENS4_IS6_EEEC1B7v160006IDnS8_EEOT_OT0_, symObjAddr: 0x6B8, symBinAddr: 0x1000139D4, symSize: 0x3C }
  - { offsetInCU: 0x9066, offset: 0x62AF9, size: 0x8, addend: 0x0, symName: __ZNSt3__128__exception_guard_exceptionsINS_6vectorINS_12basic_stringIcNS_11char_traitsIcEENS_9allocatorIcEEEENS5_IS7_EEE16__destroy_vectorEE10__completeB7v160006Ev, symObjAddr: 0x8B8, symBinAddr: 0x100013A50, symSize: 0x1C }
  - { offsetInCU: 0x908A, offset: 0x62B1D, size: 0x8, addend: 0x0, symName: __ZNSt3__128__exception_guard_exceptionsINS_6vectorINS_12basic_stringIcNS_11char_traitsIcEENS_9allocatorIcEEEENS5_IS7_EEE16__destroy_vectorEED1B7v160006Ev, symObjAddr: 0x8D4, symBinAddr: 0x100013A6C, symSize: 0x2C }
  - { offsetInCU: 0x90B3, offset: 0x62B46, size: 0x8, addend: 0x0, symName: __ZNSt3__117__compressed_pairIPNS_12basic_stringIcNS_11char_traitsIcEENS_9allocatorIcEEEENS4_IS6_EEEC2B7v160006IDnS8_EEOT_OT0_, symObjAddr: 0x938, symBinAddr: 0x100013A98, symSize: 0x44 }
  - { offsetInCU: 0x910A, offset: 0x62B9D, size: 0x8, addend: 0x0, symName: __ZNSt3__122__compressed_pair_elemINS_9allocatorINS_12basic_stringIcNS_11char_traitsIcEENS1_IcEEEEEELi1ELb1EEC2B7v160006IS7_vEEOT_, symObjAddr: 0x998, symBinAddr: 0x100013ADC, symSize: 0x18 }
  - { offsetInCU: 0x914C, offset: 0x62BDF, size: 0x8, addend: 0x0, symName: __ZNSt3__128__exception_guard_exceptionsINS_6vectorINS_12basic_stringIcNS_11char_traitsIcEENS_9allocatorIcEEEENS5_IS7_EEE16__destroy_vectorEEC1B7v160006ESA_, symObjAddr: 0x9B0, symBinAddr: 0x100013AF4, symSize: 0x34 }
  - { offsetInCU: 0x9183, offset: 0x62C16, size: 0x8, addend: 0x0, symName: __ZNSt3__128__exception_guard_exceptionsINS_6vectorINS_12basic_stringIcNS_11char_traitsIcEENS_9allocatorIcEEEENS5_IS7_EEE16__destroy_vectorEEC2B7v160006ESA_, symObjAddr: 0x9E4, symBinAddr: 0x100013B28, symSize: 0x24 }
  - { offsetInCU: 0x91D3, offset: 0x62C66, size: 0x8, addend: 0x0, symName: __ZNSt3__128__exception_guard_exceptionsINS_6vectorINS_12basic_stringIcNS_11char_traitsIcEENS_9allocatorIcEEEENS5_IS7_EEE16__destroy_vectorEED2B7v160006Ev, symObjAddr: 0x1854, symBinAddr: 0x100013B4C, symSize: 0x50 }
  - { offsetInCU: 0x26, offset: 0x62CC8, size: 0x8, addend: 0x0, symName: __ZN9InventoryC2Ev, symObjAddr: 0x0, symBinAddr: 0x100013B9C, symSize: 0x4C }
  - { offsetInCU: 0x7119, offset: 0x69DBB, size: 0x8, addend: 0x0, symName: __ZN9InventoryC2Ev, symObjAddr: 0x0, symBinAddr: 0x100013B9C, symSize: 0x4C }
  - { offsetInCU: 0x7143, offset: 0x69DE5, size: 0x8, addend: 0x0, symName: __ZN9InventoryC1Ev, symObjAddr: 0x4C, symBinAddr: 0x100013BE8, symSize: 0x2C }
  - { offsetInCU: 0x716D, offset: 0x69E0F, size: 0x8, addend: 0x0, symName: __ZN9InventoryD2Ev, symObjAddr: 0x78, symBinAddr: 0x100013C14, symSize: 0x2C }
  - { offsetInCU: 0x7197, offset: 0x69E39, size: 0x8, addend: 0x0, symName: __ZN9InventoryD1Ev, symObjAddr: 0xA4, symBinAddr: 0x100013C40, symSize: 0x2C }
  - { offsetInCU: 0x71C1, offset: 0x69E63, size: 0x8, addend: 0x0, symName: __ZN9InventoryD0Ev, symObjAddr: 0xD0, symBinAddr: 0x100013C6C, symSize: 0x30 }
  - { offsetInCU: 0x71EB, offset: 0x69E8D, size: 0x8, addend: 0x0, symName: __ZN9Inventory16ProcessInventoryER15MediaCollection, symObjAddr: 0x100, symBinAddr: 0x100013C9C, symSize: 0x28 }
  - { offsetInCU: 0x26, offset: 0x69EEC, size: 0x8, addend: 0x0, symName: __ZN5MediaC2Ev, symObjAddr: 0x0, symBinAddr: 0x100013CC4, symSize: 0x30 }
  - { offsetInCU: 0x5E89, offset: 0x6FD4F, size: 0x8, addend: 0x0, symName: __ZN5MediaC2Ev, symObjAddr: 0x0, symBinAddr: 0x100013CC4, symSize: 0x30 }
  - { offsetInCU: 0x5EB3, offset: 0x6FD79, size: 0x8, addend: 0x0, symName: __ZN5MediaD2Ev, symObjAddr: 0x30, symBinAddr: 0x100013CF4, symSize: 0x14 }
  - { offsetInCU: 0x5EDD, offset: 0x6FDA3, size: 0x8, addend: 0x0, symName: __ZN5MediaD1Ev, symObjAddr: 0x44, symBinAddr: 0x100013D08, symSize: 0x14 }
  - { offsetInCU: 0x5F07, offset: 0x6FDCD, size: 0x8, addend: 0x0, symName: __ZN5MediaD0Ev, symObjAddr: 0x58, symBinAddr: 0x100013D1C, symSize: 0xC }
  - { offsetInCU: 0x5F31, offset: 0x6FDF7, size: 0x8, addend: 0x0, symName: __ZNK5Media8getStockEv, symObjAddr: 0x64, symBinAddr: 0x100013D28, symSize: 0x18 }
  - { offsetInCU: 0x5F57, offset: 0x6FE1D, size: 0x8, addend: 0x0, symName: __ZN5Media8setStockEi, symObjAddr: 0x7C, symBinAddr: 0x100013D40, symSize: 0x20 }
  - { offsetInCU: 0x5F8B, offset: 0x6FE51, size: 0x8, addend: 0x0, symName: __ZN5Media12setMediaTypeE9MediaType, symObjAddr: 0x9C, symBinAddr: 0x100013D60, symSize: 0x20 }
  - { offsetInCU: 0x5FBF, offset: 0x6FE85, size: 0x8, addend: 0x0, symName: __ZN5Media8AddStockEi, symObjAddr: 0xBC, symBinAddr: 0x100013D80, symSize: 0x28 }
  - { offsetInCU: 0x5FF3, offset: 0x6FEB9, size: 0x8, addend: 0x0, symName: __ZN5Media14IncrementStockEv, symObjAddr: 0xE4, symBinAddr: 0x100013DA8, symSize: 0x20 }
  - { offsetInCU: 0x6019, offset: 0x6FEDF, size: 0x8, addend: 0x0, symName: __ZN5Media14DecrementStockEv, symObjAddr: 0x104, symBinAddr: 0x100013DC8, symSize: 0x70 }
  - { offsetInCU: 0x603F, offset: 0x6FF05, size: 0x8, addend: 0x0, symName: __ZlsRNSt3__113basic_ostreamIcNS_11char_traitsIcEEEERK5Media, symObjAddr: 0x174, symBinAddr: 0x100013E38, symSize: 0x38 }
  - { offsetInCU: 0x54BC, offset: 0x75405, size: 0x8, addend: 0x0, symName: __ZNSt3__17advanceB7v160006IPNS_4pairIc7AVLTreeEEllvEEvRT_T0_, symObjAddr: 0x2050, symBinAddr: 0x100015988, symSize: 0x50 }
  - { offsetInCU: 0x5741, offset: 0x7568A, size: 0x8, addend: 0x0, symName: __ZNSt3__17advanceB7v160006INS_16reverse_iteratorIPNS_4pairIc7AVLTreeEEEEllvEEvRT_T0_, symObjAddr: 0x24C0, symBinAddr: 0x100015DE4, symSize: 0x50 }
  - { offsetInCU: 0x62AB, offset: 0x761F4, size: 0x8, addend: 0x0, symName: __ZNSt3__119__debug_db_insert_cB7v160006INS_6vectorINS_4pairIc7AVLTreeEENS_9allocatorIS4_EEEEEEvPT_, symObjAddr: 0xB78, symBinAddr: 0x100014804, symSize: 0x10 }
  - { offsetInCU: 0x62DD, offset: 0x76226, size: 0x8, addend: 0x0, symName: __ZNSt3__112__to_addressB7v160006INS_4pairIc7AVLTreeEEEEPT_S5_, symObjAddr: 0xEAC, symBinAddr: 0x100014B38, symSize: 0x14 }
  - { offsetInCU: 0x633A, offset: 0x76283, size: 0x8, addend: 0x0, symName: __ZNSt3__112construct_atB7v160006INS_4pairIc7AVLTreeEEJS3_EPS3_EEPT_S6_DpOT0_, symObjAddr: 0xF38, symBinAddr: 0x100014BC4, symSize: 0x34 }
  - { offsetInCU: 0x63B0, offset: 0x762F9, size: 0x8, addend: 0x0, symName: __ZNSt3__119__allocate_at_leastB7v160006INS_9allocatorINS_4pairIc7AVLTreeEEEEEENS_19__allocation_resultINS_16allocator_traitsIT_E7pointerEEERS8_m, symObjAddr: 0x1710, symBinAddr: 0x10001514C, symSize: 0x40 }
  - { offsetInCU: 0x63F3, offset: 0x7633C, size: 0x8, addend: 0x0, symName: __ZNSt3__142__uninitialized_allocator_move_if_noexceptB7v160006INS_9allocatorINS_4pairIc7AVLTreeEEEENS_16reverse_iteratorIPS4_EES8_S8_EET2_RT_T0_T1_S9_, symObjAddr: 0x1AA0, symBinAddr: 0x1000153D8, symSize: 0x12C }
  - { offsetInCU: 0x6493, offset: 0x763DC, size: 0x8, addend: 0x0, symName: __ZNSt3__14swapB7v160006IPNS_4pairIc7AVLTreeEEEENS_9enable_ifIXaasr21is_move_constructibleIT_EE5valuesr18is_move_assignableIS6_EE5valueEvE4typeERS6_S9_, symObjAddr: 0x1C18, symBinAddr: 0x100015550, symSize: 0x3C }
  - { offsetInCU: 0x64E5, offset: 0x7642E, size: 0x8, addend: 0x0, symName: __ZNSt3__125__debug_db_invalidate_allB7v160006INS_6vectorINS_4pairIc7AVLTreeEENS_9allocatorIS4_EEEEEEvPT_, symObjAddr: 0x1D1C, symBinAddr: 0x100015654, symSize: 0x10 }
  - { offsetInCU: 0x6517, offset: 0x76460, size: 0x8, addend: 0x0, symName: __ZNSt3__122__make_exception_guardB7v160006INS_29_AllocatorDestroyRangeReverseINS_9allocatorINS_4pairIc7AVLTreeEEEENS_16reverse_iteratorIPS5_EEEEEENS_28__exception_guard_exceptionsIT_EESC_, symObjAddr: 0x1D74, symBinAddr: 0x1000156AC, symSize: 0x4C }
  - { offsetInCU: 0x654D, offset: 0x76496, size: 0x8, addend: 0x0, symName: __ZNSt3__1neB7v160006IPNS_4pairIc7AVLTreeEES4_EEbRKNS_16reverse_iteratorIT_EERKNS5_IT0_EE, symObjAddr: 0x1E04, symBinAddr: 0x10001573C, symSize: 0x48 }
  - { offsetInCU: 0x6599, offset: 0x764E2, size: 0x8, addend: 0x0, symName: __ZNSt3__112__to_addressB7v160006INS_16reverse_iteratorIPNS_4pairIc7AVLTreeEEEEvEENS_5decayIDTclsr19__to_address_helperIT_EE6__callclsr3stdE7declvalIRKS8_EEEEE4typeESA_, symObjAddr: 0x1E4C, symBinAddr: 0x100015784, symSize: 0x24 }
  - { offsetInCU: 0x65FA, offset: 0x76543, size: 0x8, addend: 0x0, symName: __ZNSt3__14prevB7v160006IPNS_4pairIc7AVLTreeEEEENS_9enable_ifIXsr25__is_cpp17_input_iteratorIT_EE5valueES6_E4typeES6_NS_15iterator_traitsIS6_E15difference_typeE, symObjAddr: 0x2000, symBinAddr: 0x100015938, symSize: 0x50 }
  - { offsetInCU: 0x663D, offset: 0x76586, size: 0x8, addend: 0x0, symName: __ZNSt3__19__advanceB7v160006IPNS_4pairIc7AVLTreeEEEEvRT_NS_15iterator_traitsIS5_E15difference_typeENS_26random_access_iterator_tagE, symObjAddr: 0x20B4, symBinAddr: 0x1000159D8, symSize: 0x30 }
  - { offsetInCU: 0x6688, offset: 0x765D1, size: 0x8, addend: 0x0, symName: __ZNSt3__119__allocator_destroyB7v160006INS_9allocatorINS_4pairIc7AVLTreeEEEENS_16reverse_iteratorINS6_IPS4_EEEES9_EEvRT_T0_T1_, symObjAddr: 0x21E8, symBinAddr: 0x100015B0C, symSize: 0x70 }
  - { offsetInCU: 0x66EE, offset: 0x76637, size: 0x8, addend: 0x0, symName: __ZNSt3__1neB7v160006INS_16reverse_iteratorIPNS_4pairIc7AVLTreeEEEES6_EEbRKNS1_IT_EERKNS1_IT0_EE, symObjAddr: 0x2294, symBinAddr: 0x100015BB8, symSize: 0x60 }
  - { offsetInCU: 0x673A, offset: 0x76683, size: 0x8, addend: 0x0, symName: __ZNSt3__112__to_addressB7v160006INS_16reverse_iteratorINS1_IPNS_4pairIc7AVLTreeEEEEEEvEENS_5decayIDTclsr19__to_address_helperIT_EE6__callclsr3stdE7declvalIRKS9_EEEEE4typeESB_, symObjAddr: 0x231C, symBinAddr: 0x100015C40, symSize: 0x24 }
  - { offsetInCU: 0x6771, offset: 0x766BA, size: 0x8, addend: 0x0, symName: __ZNSt3__110destroy_atB7v160006INS_4pairIc7AVLTreeEELi0EEEvPT_, symObjAddr: 0x2394, symBinAddr: 0x100015CB8, symSize: 0x24 }
  - { offsetInCU: 0x67AA, offset: 0x766F3, size: 0x8, addend: 0x0, symName: __ZNSt3__112__destroy_atB7v160006INS_4pairIc7AVLTreeEELi0EEEvPT_, symObjAddr: 0x23B8, symBinAddr: 0x100015CDC, symSize: 0x24 }
  - { offsetInCU: 0x680D, offset: 0x76756, size: 0x8, addend: 0x0, symName: __ZNSt3__14prevB7v160006INS_16reverse_iteratorIPNS_4pairIc7AVLTreeEEEEEENS_9enable_ifIXsr25__is_cpp17_input_iteratorIT_EE5valueES8_E4typeES8_NS_15iterator_traitsIS8_E15difference_typeE, symObjAddr: 0x2460, symBinAddr: 0x100015D84, symSize: 0x60 }
  - { offsetInCU: 0x6850, offset: 0x76799, size: 0x8, addend: 0x0, symName: __ZNSt3__19__advanceB7v160006INS_16reverse_iteratorIPNS_4pairIc7AVLTreeEEEEEEvRT_NS_15iterator_traitsIS7_E15difference_typeENS_26random_access_iterator_tagE, symObjAddr: 0x2510, symBinAddr: 0x100015E34, symSize: 0x2C }
  - { offsetInCU: 0x689B, offset: 0x767E4, size: 0x8, addend: 0x0, symName: __ZNSt3__118__debug_db_erase_cB7v160006INS_6vectorINS_4pairIc7AVLTreeEENS_9allocatorIS4_EEEEEEvPT_, symObjAddr: 0x2AE4, symBinAddr: 0x100016300, symSize: 0x10 }
  - { offsetInCU: 0x70B5, offset: 0x76FFE, size: 0x8, addend: 0x0, symName: __ZNSt3__16vectorINS_4pairIc7AVLTreeEENS_9allocatorIS3_EEE26__swap_out_circular_bufferERNS_14__split_bufferIS3_RS5_EE, symObjAddr: 0x10BC, symBinAddr: 0x100014D48, symSize: 0x118 }
  - { offsetInCU: 0x8F79, offset: 0x78EC2, size: 0x8, addend: 0x0, symName: __ZN15MediaCollectionC2Ev, symObjAddr: 0x0, symBinAddr: 0x100013E70, symSize: 0x1D4 }
  - { offsetInCU: 0x8FA3, offset: 0x78EEC, size: 0x8, addend: 0x0, symName: __ZNSt3__16vectorINS_4pairIc7AVLTreeEENS_9allocatorIS3_EEEC1B7v160006Ev, symObjAddr: 0x1D4, symBinAddr: 0x100014044, symSize: 0x2C }
  - { offsetInCU: 0x8FCC, offset: 0x78F15, size: 0x8, addend: 0x0, symName: __ZNSt3__16vectorINS_4pairIc7AVLTreeEENS_9allocatorIS3_EEE9push_backB7v160006EOS3_, symObjAddr: 0x200, symBinAddr: 0x100014070, symSize: 0x6C }
  - { offsetInCU: 0x900B, offset: 0x78F54, size: 0x8, addend: 0x0, symName: __ZNSt3__14pairIc7AVLTreeEC1B7v160006I9MovieTypeRS1_LPv0EEEOT_OT0_, symObjAddr: 0x26C, symBinAddr: 0x1000140DC, symSize: 0x3C }
  - { offsetInCU: 0x9069, offset: 0x78FB2, size: 0x8, addend: 0x0, symName: __ZNSt3__14pairIc7AVLTreeED1Ev, symObjAddr: 0x2A8, symBinAddr: 0x100014118, symSize: 0x2C }
  - { offsetInCU: 0x9093, offset: 0x78FDC, size: 0x8, addend: 0x0, symName: __ZNSt3__16vectorINS_4pairIc7AVLTreeEENS_9allocatorIS3_EEED1B7v160006Ev, symObjAddr: 0x2D4, symBinAddr: 0x100014144, symSize: 0x2C }
  - { offsetInCU: 0x90BC, offset: 0x79005, size: 0x8, addend: 0x0, symName: __ZN15MediaCollectionC1Ev, symObjAddr: 0x300, symBinAddr: 0x100014170, symSize: 0x2C }
  - { offsetInCU: 0x90E6, offset: 0x7902F, size: 0x8, addend: 0x0, symName: __ZN15MediaCollectionD2Ev, symObjAddr: 0x32C, symBinAddr: 0x10001419C, symSize: 0x50 }
  - { offsetInCU: 0x9110, offset: 0x79059, size: 0x8, addend: 0x0, symName: __ZN15MediaCollectionD1Ev, symObjAddr: 0x37C, symBinAddr: 0x1000141EC, symSize: 0x2C }
  - { offsetInCU: 0x913A, offset: 0x79083, size: 0x8, addend: 0x0, symName: __ZN15MediaCollection6InsertERP5Media, symObjAddr: 0x3A8, symBinAddr: 0x100014218, symSize: 0x154 }
  - { offsetInCU: 0x917C, offset: 0x790C5, size: 0x8, addend: 0x0, symName: __ZNSt3__16vectorINS_4pairIc7AVLTreeEENS_9allocatorIS3_EEEixB7v160006Em, symObjAddr: 0x4FC, symBinAddr: 0x10001436C, symSize: 0x2C }
  - { offsetInCU: 0x91B2, offset: 0x790FB, size: 0x8, addend: 0x0, symName: __ZN15MediaCollection8RetrieveERP5MediaS2_, symObjAddr: 0x528, symBinAddr: 0x100014398, symSize: 0x1A0 }
  - { offsetInCU: 0x9202, offset: 0x7914B, size: 0x8, addend: 0x0, symName: __ZNK15MediaCollection7DisplayEv, symObjAddr: 0x7C8, symBinAddr: 0x100014538, symSize: 0x1E4 }
  - { offsetInCU: 0x926E, offset: 0x791B7, size: 0x8, addend: 0x0, symName: __ZNKSt3__16vectorINS_4pairIc7AVLTreeEENS_9allocatorIS3_EEE4sizeB7v160006Ev, symObjAddr: 0x9AC, symBinAddr: 0x10001471C, symSize: 0x28 }
  - { offsetInCU: 0x9292, offset: 0x791DB, size: 0x8, addend: 0x0, symName: __ZNKSt3__16vectorINS_4pairIc7AVLTreeEENS_9allocatorIS3_EEEixB7v160006Em, symObjAddr: 0xAAC, symBinAddr: 0x100014744, symSize: 0x2C }
  - { offsetInCU: 0x92C8, offset: 0x79211, size: 0x8, addend: 0x0, symName: __ZNSt3__16vectorINS_4pairIc7AVLTreeEENS_9allocatorIS3_EEEC2B7v160006Ev, symObjAddr: 0xAD8, symBinAddr: 0x100014770, symSize: 0x58 }
  - { offsetInCU: 0x92FB, offset: 0x79244, size: 0x8, addend: 0x0, symName: __ZNSt3__117__compressed_pairIPNS_4pairIc7AVLTreeEENS_9allocatorIS3_EEEC1B7v160006IDnNS_18__default_init_tagEEEOT_OT0_, symObjAddr: 0xB30, symBinAddr: 0x1000147C8, symSize: 0x3C }
  - { offsetInCU: 0x9352, offset: 0x7929B, size: 0x8, addend: 0x0, symName: __ZNSt3__117__compressed_pairIPNS_4pairIc7AVLTreeEENS_9allocatorIS3_EEEC2B7v160006IDnNS_18__default_init_tagEEEOT_OT0_, symObjAddr: 0xB88, symBinAddr: 0x100014814, symSize: 0x40 }
  - { offsetInCU: 0x93A9, offset: 0x792F2, size: 0x8, addend: 0x0, symName: __ZNSt3__122__compressed_pair_elemIPNS_4pairIc7AVLTreeEELi0ELb0EEC2B7v160006IDnvEEOT_, symObjAddr: 0xBC8, symBinAddr: 0x100014854, symSize: 0x1C }
  - { offsetInCU: 0x93EB, offset: 0x79334, size: 0x8, addend: 0x0, symName: __ZNSt3__122__compressed_pair_elemINS_9allocatorINS_4pairIc7AVLTreeEEEELi1ELb1EEC2B7v160006ENS_18__default_init_tagE, symObjAddr: 0xBE4, symBinAddr: 0x100014870, symSize: 0x2C }
  - { offsetInCU: 0x941F, offset: 0x79368, size: 0x8, addend: 0x0, symName: __ZNSt3__19allocatorINS_4pairIc7AVLTreeEEEC2B7v160006Ev, symObjAddr: 0xC10, symBinAddr: 0x10001489C, symSize: 0x2C }
  - { offsetInCU: 0x9448, offset: 0x79391, size: 0x8, addend: 0x0, symName: __ZNSt3__116__non_trivial_ifILb1ENS_9allocatorINS_4pairIc7AVLTreeEEEEEC2B7v160006Ev, symObjAddr: 0xC3C, symBinAddr: 0x1000148C8, symSize: 0x14 }
  - { offsetInCU: 0x9471, offset: 0x793BA, size: 0x8, addend: 0x0, symName: __ZNSt3__16vectorINS_4pairIc7AVLTreeEENS_9allocatorIS3_EEE9__end_capB7v160006Ev, symObjAddr: 0xC50, symBinAddr: 0x1000148DC, symSize: 0x28 }
  - { offsetInCU: 0x9495, offset: 0x793DE, size: 0x8, addend: 0x0, symName: __ZNSt3__16vectorINS_4pairIc7AVLTreeEENS_9allocatorIS3_EEE22__construct_one_at_endB7v160006IJS3_EEEvDpOT_, symObjAddr: 0xC78, symBinAddr: 0x100014904, symSize: 0x90 }
  - { offsetInCU: 0x94E4, offset: 0x7942D, size: 0x8, addend: 0x0, symName: __ZNSt3__16vectorINS_4pairIc7AVLTreeEENS_9allocatorIS3_EEE21__push_back_slow_pathIS3_EEvOT_, symObjAddr: 0xD08, symBinAddr: 0x100014994, symSize: 0xD8 }
  - { offsetInCU: 0x9540, offset: 0x79489, size: 0x8, addend: 0x0, symName: __ZNSt3__117__compressed_pairIPNS_4pairIc7AVLTreeEENS_9allocatorIS3_EEE5firstB7v160006Ev, symObjAddr: 0xDE0, symBinAddr: 0x100014A6C, symSize: 0x24 }
  - { offsetInCU: 0x9564, offset: 0x794AD, size: 0x8, addend: 0x0, symName: __ZNSt3__122__compressed_pair_elemIPNS_4pairIc7AVLTreeEELi0ELb0EE5__getB7v160006Ev, symObjAddr: 0xE04, symBinAddr: 0x100014A90, symSize: 0x14 }
  - { offsetInCU: 0x95A1, offset: 0x794EA, size: 0x8, addend: 0x0, symName: __ZNSt3__16vectorINS_4pairIc7AVLTreeEENS_9allocatorIS3_EEE21_ConstructTransactionC1B7v160006ERS6_m, symObjAddr: 0xE18, symBinAddr: 0x100014AA4, symSize: 0x3C }
  - { offsetInCU: 0x95E8, offset: 0x79531, size: 0x8, addend: 0x0, symName: __ZNSt3__116allocator_traitsINS_9allocatorINS_4pairIc7AVLTreeEEEEE9constructB7v160006IS4_JS4_EvvEEvRS5_PT_DpOT0_, symObjAddr: 0xE54, symBinAddr: 0x100014AE0, symSize: 0x30 }
  - { offsetInCU: 0x9641, offset: 0x7958A, size: 0x8, addend: 0x0, symName: __ZNSt3__16vectorINS_4pairIc7AVLTreeEENS_9allocatorIS3_EEE7__allocB7v160006Ev, symObjAddr: 0xE84, symBinAddr: 0x100014B10, symSize: 0x28 }
  - { offsetInCU: 0x9665, offset: 0x795AE, size: 0x8, addend: 0x0, symName: __ZNSt3__16vectorINS_4pairIc7AVLTreeEENS_9allocatorIS3_EEE21_ConstructTransactionD1B7v160006Ev, symObjAddr: 0xEC0, symBinAddr: 0x100014B4C, symSize: 0x2C }
  - { offsetInCU: 0x968E, offset: 0x795D7, size: 0x8, addend: 0x0, symName: __ZNSt3__16vectorINS_4pairIc7AVLTreeEENS_9allocatorIS3_EEE21_ConstructTransactionC2B7v160006ERS6_m, symObjAddr: 0xEEC, symBinAddr: 0x100014B78, symSize: 0x4C }
  - { offsetInCU: 0x96D5, offset: 0x7961E, size: 0x8, addend: 0x0, symName: __ZNSt3__117__compressed_pairIPNS_4pairIc7AVLTreeEENS_9allocatorIS3_EEE6secondB7v160006Ev, symObjAddr: 0xF6C, symBinAddr: 0x100014BF8, symSize: 0x24 }
  - { offsetInCU: 0x96F9, offset: 0x79642, size: 0x8, addend: 0x0, symName: __ZNSt3__122__compressed_pair_elemINS_9allocatorINS_4pairIc7AVLTreeEEEELi1ELb1EE5__getB7v160006Ev, symObjAddr: 0xF90, symBinAddr: 0x100014C1C, symSize: 0x14 }
  - { offsetInCU: 0x971D, offset: 0x79666, size: 0x8, addend: 0x0, symName: __ZNSt3__16vectorINS_4pairIc7AVLTreeEENS_9allocatorIS3_EEE21_ConstructTransactionD2B7v160006Ev, symObjAddr: 0xFA4, symBinAddr: 0x100014C30, symSize: 0x20 }
  - { offsetInCU: 0x9746, offset: 0x7968F, size: 0x8, addend: 0x0, symName: __ZNKSt3__16vectorINS_4pairIc7AVLTreeEENS_9allocatorIS3_EEE11__recommendB7v160006Em, symObjAddr: 0xFC4, symBinAddr: 0x100014C50, symSize: 0xB4 }
  - { offsetInCU: 0x9799, offset: 0x796E2, size: 0x8, addend: 0x0, symName: __ZNSt3__114__split_bufferINS_4pairIc7AVLTreeEERNS_9allocatorIS3_EEEC1EmmS6_, symObjAddr: 0x1078, symBinAddr: 0x100014D04, symSize: 0x44 }
  - { offsetInCU: 0x97EE, offset: 0x79737, size: 0x8, addend: 0x0, symName: __ZNSt3__114__split_bufferINS_4pairIc7AVLTreeEERNS_9allocatorIS3_EEED1Ev, symObjAddr: 0x11D4, symBinAddr: 0x100014E60, symSize: 0x2C }
  - { offsetInCU: 0x9819, offset: 0x79762, size: 0x8, addend: 0x0, symName: __ZNKSt3__16vectorINS_4pairIc7AVLTreeEENS_9allocatorIS3_EEE8max_sizeEv, symObjAddr: 0x1200, symBinAddr: 0x100014E8C, symSize: 0x60 }
  - { offsetInCU: 0x983F, offset: 0x79788, size: 0x8, addend: 0x0, symName: __ZNKSt3__16vectorINS_4pairIc7AVLTreeEENS_9allocatorIS3_EEE20__throw_length_errorB7v160006Ev, symObjAddr: 0x1260, symBinAddr: 0x100014EEC, symSize: 0x1C }
  - { offsetInCU: 0x9863, offset: 0x797AC, size: 0x8, addend: 0x0, symName: __ZNKSt3__16vectorINS_4pairIc7AVLTreeEENS_9allocatorIS3_EEE8capacityB7v160006Ev, symObjAddr: 0x127C, symBinAddr: 0x100014F08, symSize: 0x40 }
  - { offsetInCU: 0x9891, offset: 0x797DA, size: 0x8, addend: 0x0, symName: __ZNSt3__116allocator_traitsINS_9allocatorINS_4pairIc7AVLTreeEEEEE8max_sizeB7v160006IS5_vvEEmRKS5_, symObjAddr: 0x1314, symBinAddr: 0x100014F48, symSize: 0x28 }
  - { offsetInCU: 0x98BF, offset: 0x79808, size: 0x8, addend: 0x0, symName: __ZNKSt3__16vectorINS_4pairIc7AVLTreeEENS_9allocatorIS3_EEE7__allocB7v160006Ev, symObjAddr: 0x133C, symBinAddr: 0x100014F70, symSize: 0x28 }
  - { offsetInCU: 0x98E3, offset: 0x7982C, size: 0x8, addend: 0x0, symName: __ZNKSt3__117__compressed_pairIPNS_4pairIc7AVLTreeEENS_9allocatorIS3_EEE6secondB7v160006Ev, symObjAddr: 0x141C, symBinAddr: 0x100014F98, symSize: 0x24 }
  - { offsetInCU: 0x9907, offset: 0x79850, size: 0x8, addend: 0x0, symName: __ZNKSt3__122__compressed_pair_elemINS_9allocatorINS_4pairIc7AVLTreeEEEELi1ELb1EE5__getB7v160006Ev, symObjAddr: 0x1440, symBinAddr: 0x100014FBC, symSize: 0x14 }
  - { offsetInCU: 0x992B, offset: 0x79874, size: 0x8, addend: 0x0, symName: __ZNKSt3__16vectorINS_4pairIc7AVLTreeEENS_9allocatorIS3_EEE9__end_capB7v160006Ev, symObjAddr: 0x1540, symBinAddr: 0x100014FD0, symSize: 0x28 }
  - { offsetInCU: 0x994F, offset: 0x79898, size: 0x8, addend: 0x0, symName: __ZNKSt3__117__compressed_pairIPNS_4pairIc7AVLTreeEENS_9allocatorIS3_EEE5firstB7v160006Ev, symObjAddr: 0x1568, symBinAddr: 0x100014FF8, symSize: 0x24 }
  - { offsetInCU: 0x9973, offset: 0x798BC, size: 0x8, addend: 0x0, symName: __ZNKSt3__122__compressed_pair_elemIPNS_4pairIc7AVLTreeEELi0ELb0EE5__getB7v160006Ev, symObjAddr: 0x158C, symBinAddr: 0x10001501C, symSize: 0x14 }
  - { offsetInCU: 0x9997, offset: 0x798E0, size: 0x8, addend: 0x0, symName: __ZNSt3__114__split_bufferINS_4pairIc7AVLTreeEERNS_9allocatorIS3_EEEC2EmmS6_, symObjAddr: 0x15F4, symBinAddr: 0x100015030, symSize: 0xE0 }
  - { offsetInCU: 0x9A09, offset: 0x79952, size: 0x8, addend: 0x0, symName: __ZNSt3__117__compressed_pairIPNS_4pairIc7AVLTreeEERNS_9allocatorIS3_EEEC1B7v160006IDnS7_EEOT_OT0_, symObjAddr: 0x16D4, symBinAddr: 0x100015110, symSize: 0x3C }
  - { offsetInCU: 0x9A60, offset: 0x799A9, size: 0x8, addend: 0x0, symName: __ZNSt3__114__split_bufferINS_4pairIc7AVLTreeEERNS_9allocatorIS3_EEE7__allocB7v160006Ev, symObjAddr: 0x1750, symBinAddr: 0x10001518C, symSize: 0x28 }
  - { offsetInCU: 0x9A84, offset: 0x799CD, size: 0x8, addend: 0x0, symName: __ZNSt3__114__split_bufferINS_4pairIc7AVLTreeEERNS_9allocatorIS3_EEE9__end_capB7v160006Ev, symObjAddr: 0x1778, symBinAddr: 0x1000151B4, symSize: 0x28 }
  - { offsetInCU: 0x9AA8, offset: 0x799F1, size: 0x8, addend: 0x0, symName: __ZNSt3__117__compressed_pairIPNS_4pairIc7AVLTreeEERNS_9allocatorIS3_EEEC2B7v160006IDnS7_EEOT_OT0_, symObjAddr: 0x17A0, symBinAddr: 0x1000151DC, symSize: 0x48 }
  - { offsetInCU: 0x9AFF, offset: 0x79A48, size: 0x8, addend: 0x0, symName: __ZNSt3__122__compressed_pair_elemIRNS_9allocatorINS_4pairIc7AVLTreeEEEELi1ELb0EEC2B7v160006IS6_vEEOT_, symObjAddr: 0x17E8, symBinAddr: 0x100015224, symSize: 0x20 }
  - { offsetInCU: 0x9B41, offset: 0x79A8A, size: 0x8, addend: 0x0, symName: __ZNSt3__19allocatorINS_4pairIc7AVLTreeEEE8allocateB7v160006Em, symObjAddr: 0x1808, symBinAddr: 0x100015244, symSize: 0x5C }
  - { offsetInCU: 0x9B73, offset: 0x79ABC, size: 0x8, addend: 0x0, symName: __ZNSt3__117__compressed_pairIPNS_4pairIc7AVLTreeEERNS_9allocatorIS3_EEE6secondB7v160006Ev, symObjAddr: 0x1968, symBinAddr: 0x1000152A0, symSize: 0x28 }
  - { offsetInCU: 0x9B97, offset: 0x79AE0, size: 0x8, addend: 0x0, symName: __ZNSt3__122__compressed_pair_elemIRNS_9allocatorINS_4pairIc7AVLTreeEEEELi1ELb0EE5__getB7v160006Ev, symObjAddr: 0x1990, symBinAddr: 0x1000152C8, symSize: 0x18 }
  - { offsetInCU: 0x9BBB, offset: 0x79B04, size: 0x8, addend: 0x0, symName: __ZNSt3__117__compressed_pairIPNS_4pairIc7AVLTreeEERNS_9allocatorIS3_EEE5firstB7v160006Ev, symObjAddr: 0x19A8, symBinAddr: 0x1000152E0, symSize: 0x24 }
  - { offsetInCU: 0x9BDF, offset: 0x79B28, size: 0x8, addend: 0x0, symName: __ZNKSt3__16vectorINS_4pairIc7AVLTreeEENS_9allocatorIS3_EEE17__annotate_deleteB7v160006Ev, symObjAddr: 0x19CC, symBinAddr: 0x100015304, symSize: 0xD4 }
  - { offsetInCU: 0x9C03, offset: 0x79B4C, size: 0x8, addend: 0x0, symName: __ZNSt3__116reverse_iteratorIPNS_4pairIc7AVLTreeEEEC1B7v160006ES4_, symObjAddr: 0x1BCC, symBinAddr: 0x100015504, symSize: 0x34 }
  - { offsetInCU: 0x9C3A, offset: 0x79B83, size: 0x8, addend: 0x0, symName: __ZNKSt3__116reverse_iteratorIPNS_4pairIc7AVLTreeEEE4baseB7v160006Ev, symObjAddr: 0x1C00, symBinAddr: 0x100015538, symSize: 0x18 }
  - { offsetInCU: 0x9C5E, offset: 0x79BA7, size: 0x8, addend: 0x0, symName: __ZNKSt3__16vectorINS_4pairIc7AVLTreeEENS_9allocatorIS3_EEE14__annotate_newB7v160006Em, symObjAddr: 0x1C54, symBinAddr: 0x10001558C, symSize: 0xC8 }
  - { offsetInCU: 0x9C91, offset: 0x79BDA, size: 0x8, addend: 0x0, symName: __ZNKSt3__16vectorINS_4pairIc7AVLTreeEENS_9allocatorIS3_EEE31__annotate_contiguous_containerB7v160006EPKvS8_S8_S8_, symObjAddr: 0x1D2C, symBinAddr: 0x100015664, symSize: 0x20 }
  - { offsetInCU: 0x9CE5, offset: 0x79C2E, size: 0x8, addend: 0x0, symName: __ZNKSt3__16vectorINS_4pairIc7AVLTreeEENS_9allocatorIS3_EEE4dataB7v160006Ev, symObjAddr: 0x1D4C, symBinAddr: 0x100015684, symSize: 0x28 }
  - { offsetInCU: 0x9D09, offset: 0x79C52, size: 0x8, addend: 0x0, symName: __ZNSt3__129_AllocatorDestroyRangeReverseINS_9allocatorINS_4pairIc7AVLTreeEEEENS_16reverse_iteratorIPS4_EEEC1B7v160006ERS5_RS8_SB_, symObjAddr: 0x1DC0, symBinAddr: 0x1000156F8, symSize: 0x44 }
  - { offsetInCU: 0x9D5F, offset: 0x79CA8, size: 0x8, addend: 0x0, symName: __ZNKSt3__116reverse_iteratorIPNS_4pairIc7AVLTreeEEEdeB7v160006Ev, symObjAddr: 0x1E70, symBinAddr: 0x1000157A8, symSize: 0x28 }
  - { offsetInCU: 0x9D91, offset: 0x79CDA, size: 0x8, addend: 0x0, symName: __ZNSt3__116reverse_iteratorIPNS_4pairIc7AVLTreeEEEppB7v160006Ev, symObjAddr: 0x1E98, symBinAddr: 0x1000157D0, symSize: 0x20 }
  - { offsetInCU: 0x9DB5, offset: 0x79CFE, size: 0x8, addend: 0x0, symName: __ZNSt3__128__exception_guard_exceptionsINS_29_AllocatorDestroyRangeReverseINS_9allocatorINS_4pairIc7AVLTreeEEEENS_16reverse_iteratorIPS5_EEEEE10__completeB7v160006Ev, symObjAddr: 0x1EB8, symBinAddr: 0x1000157F0, symSize: 0x1C }
  - { offsetInCU: 0x9DD9, offset: 0x79D22, size: 0x8, addend: 0x0, symName: __ZNSt3__128__exception_guard_exceptionsINS_29_AllocatorDestroyRangeReverseINS_9allocatorINS_4pairIc7AVLTreeEEEENS_16reverse_iteratorIPS5_EEEEED1B7v160006Ev, symObjAddr: 0x1ED4, symBinAddr: 0x10001580C, symSize: 0x2C }
  - { offsetInCU: 0x9E02, offset: 0x79D4B, size: 0x8, addend: 0x0, symName: __ZNSt3__128__exception_guard_exceptionsINS_29_AllocatorDestroyRangeReverseINS_9allocatorINS_4pairIc7AVLTreeEEEENS_16reverse_iteratorIPS5_EEEEEC1B7v160006ESA_, symObjAddr: 0x1F00, symBinAddr: 0x100015838, symSize: 0x34 }
  - { offsetInCU: 0x9E3A, offset: 0x79D83, size: 0x8, addend: 0x0, symName: __ZNSt3__128__exception_guard_exceptionsINS_29_AllocatorDestroyRangeReverseINS_9allocatorINS_4pairIc7AVLTreeEEEENS_16reverse_iteratorIPS5_EEEEEC2B7v160006ESA_, symObjAddr: 0x1F34, symBinAddr: 0x10001586C, symSize: 0x30 }
  - { offsetInCU: 0x9E72, offset: 0x79DBB, size: 0x8, addend: 0x0, symName: __ZNSt3__129_AllocatorDestroyRangeReverseINS_9allocatorINS_4pairIc7AVLTreeEEEENS_16reverse_iteratorIPS4_EEEC2B7v160006ERS5_RS8_SB_, symObjAddr: 0x1F64, symBinAddr: 0x10001589C, symSize: 0x38 }
  - { offsetInCU: 0x9ECD, offset: 0x79E16, size: 0x8, addend: 0x0, symName: __ZNSt3__119__to_address_helperINS_16reverse_iteratorIPNS_4pairIc7AVLTreeEEEEvE6__callB7v160006ERKS6_, symObjAddr: 0x1F9C, symBinAddr: 0x1000158D4, symSize: 0x38 }
  - { offsetInCU: 0x9EF0, offset: 0x79E39, size: 0x8, addend: 0x0, symName: __ZNKSt3__116reverse_iteratorIPNS_4pairIc7AVLTreeEEEptB7v160006Ev, symObjAddr: 0x1FD4, symBinAddr: 0x10001590C, symSize: 0x2C }
  - { offsetInCU: 0x9F14, offset: 0x79E5D, size: 0x8, addend: 0x0, symName: __ZNSt3__128__exception_guard_exceptionsINS_29_AllocatorDestroyRangeReverseINS_9allocatorINS_4pairIc7AVLTreeEEEENS_16reverse_iteratorIPS5_EEEEED2B7v160006Ev, symObjAddr: 0x20E4, symBinAddr: 0x100015A08, symSize: 0x50 }
  - { offsetInCU: 0x9F3D, offset: 0x79E86, size: 0x8, addend: 0x0, symName: __ZNKSt3__129_AllocatorDestroyRangeReverseINS_9allocatorINS_4pairIc7AVLTreeEEEENS_16reverse_iteratorIPS4_EEEclB7v160006Ev, symObjAddr: 0x2134, symBinAddr: 0x100015A58, symSize: 0xB4 }
  - { offsetInCU: 0x9F62, offset: 0x79EAB, size: 0x8, addend: 0x0, symName: __ZNSt3__116reverse_iteratorINS0_IPNS_4pairIc7AVLTreeEEEEEC1B7v160006ES5_, symObjAddr: 0x2258, symBinAddr: 0x100015B7C, symSize: 0x3C }
  - { offsetInCU: 0x9F99, offset: 0x79EE2, size: 0x8, addend: 0x0, symName: __ZNSt3__116allocator_traitsINS_9allocatorINS_4pairIc7AVLTreeEEEEE7destroyB7v160006IS4_vvEEvRS5_PT_, symObjAddr: 0x22F4, symBinAddr: 0x100015C18, symSize: 0x28 }
  - { offsetInCU: 0x9FD6, offset: 0x79F1F, size: 0x8, addend: 0x0, symName: __ZNSt3__116reverse_iteratorINS0_IPNS_4pairIc7AVLTreeEEEEEppB7v160006Ev, symObjAddr: 0x2340, symBinAddr: 0x100015C64, symSize: 0x30 }
  - { offsetInCU: 0x9FFA, offset: 0x79F43, size: 0x8, addend: 0x0, symName: __ZNKSt3__116reverse_iteratorINS0_IPNS_4pairIc7AVLTreeEEEEE4baseB7v160006Ev, symObjAddr: 0x2370, symBinAddr: 0x100015C94, symSize: 0x24 }
  - { offsetInCU: 0xA023, offset: 0x79F6C, size: 0x8, addend: 0x0, symName: __ZNSt3__119__to_address_helperINS_16reverse_iteratorINS1_IPNS_4pairIc7AVLTreeEEEEEEvE6__callB7v160006ERKS7_, symObjAddr: 0x23DC, symBinAddr: 0x100015D00, symSize: 0x38 }
  - { offsetInCU: 0xA046, offset: 0x79F8F, size: 0x8, addend: 0x0, symName: __ZNKSt3__116reverse_iteratorINS0_IPNS_4pairIc7AVLTreeEEEEEptB7v160006Ev, symObjAddr: 0x2414, symBinAddr: 0x100015D38, symSize: 0x4C }
  - { offsetInCU: 0xA06A, offset: 0x79FB3, size: 0x8, addend: 0x0, symName: __ZNSt3__116reverse_iteratorIPNS_4pairIc7AVLTreeEEEpLB7v160006El, symObjAddr: 0x253C, symBinAddr: 0x100015E60, symSize: 0x30 }
  - { offsetInCU: 0xA09C, offset: 0x79FE5, size: 0x8, addend: 0x0, symName: __ZNSt3__116reverse_iteratorIPNS_4pairIc7AVLTreeEEEmmB7v160006Ev, symObjAddr: 0x256C, symBinAddr: 0x100015E90, symSize: 0x20 }
  - { offsetInCU: 0xA0C0, offset: 0x7A009, size: 0x8, addend: 0x0, symName: __ZNSt3__116reverse_iteratorINS0_IPNS_4pairIc7AVLTreeEEEEEC2B7v160006ES5_, symObjAddr: 0x258C, symBinAddr: 0x100015EB0, symSize: 0x2C }
  - { offsetInCU: 0xA0F7, offset: 0x7A040, size: 0x8, addend: 0x0, symName: __ZNSt3__116reverse_iteratorIPNS_4pairIc7AVLTreeEEEC2B7v160006ES4_, symObjAddr: 0x25B8, symBinAddr: 0x100015EDC, symSize: 0x28 }
  - { offsetInCU: 0xA12E, offset: 0x7A077, size: 0x8, addend: 0x0, symName: __ZNSt3__114__split_bufferINS_4pairIc7AVLTreeEERNS_9allocatorIS3_EEED2Ev, symObjAddr: 0x25E0, symBinAddr: 0x100015F04, symSize: 0x8C }
  - { offsetInCU: 0xA159, offset: 0x7A0A2, size: 0x8, addend: 0x0, symName: __ZNSt3__114__split_bufferINS_4pairIc7AVLTreeEERNS_9allocatorIS3_EEE5clearB7v160006Ev, symObjAddr: 0x266C, symBinAddr: 0x100015F90, symSize: 0x28 }
  - { offsetInCU: 0xA17D, offset: 0x7A0C6, size: 0x8, addend: 0x0, symName: __ZNSt3__116allocator_traitsINS_9allocatorINS_4pairIc7AVLTreeEEEEE10deallocateB7v160006ERS5_PS4_m, symObjAddr: 0x2694, symBinAddr: 0x100015FB8, symSize: 0x34 }
  - { offsetInCU: 0xA1BF, offset: 0x7A108, size: 0x8, addend: 0x0, symName: __ZNKSt3__114__split_bufferINS_4pairIc7AVLTreeEERNS_9allocatorIS3_EEE8capacityB7v160006Ev, symObjAddr: 0x26C8, symBinAddr: 0x100015FEC, symSize: 0x40 }
  - { offsetInCU: 0xA1E3, offset: 0x7A12C, size: 0x8, addend: 0x0, symName: __ZNSt3__114__split_bufferINS_4pairIc7AVLTreeEERNS_9allocatorIS3_EEE17__destruct_at_endB7v160006EPS3_, symObjAddr: 0x2708, symBinAddr: 0x10001602C, symSize: 0x2C }
  - { offsetInCU: 0xA215, offset: 0x7A15E, size: 0x8, addend: 0x0, symName: __ZNSt3__114__split_bufferINS_4pairIc7AVLTreeEERNS_9allocatorIS3_EEE17__destruct_at_endB7v160006EPS3_NS_17integral_constantIbLb0EEE, symObjAddr: 0x2734, symBinAddr: 0x100016058, symSize: 0x80 }
  - { offsetInCU: 0xA254, offset: 0x7A19D, size: 0x8, addend: 0x0, symName: __ZNSt3__19allocatorINS_4pairIc7AVLTreeEEE10deallocateB7v160006EPS3_m, symObjAddr: 0x27B4, symBinAddr: 0x1000160D8, symSize: 0x44 }
  - { offsetInCU: 0xA294, offset: 0x7A1DD, size: 0x8, addend: 0x0, symName: __ZNKSt3__114__split_bufferINS_4pairIc7AVLTreeEERNS_9allocatorIS3_EEE9__end_capB7v160006Ev, symObjAddr: 0x2900, symBinAddr: 0x10001611C, symSize: 0x28 }
  - { offsetInCU: 0xA2B8, offset: 0x7A201, size: 0x8, addend: 0x0, symName: __ZNKSt3__117__compressed_pairIPNS_4pairIc7AVLTreeEERNS_9allocatorIS3_EEE5firstB7v160006Ev, symObjAddr: 0x2928, symBinAddr: 0x100016144, symSize: 0x24 }
  - { offsetInCU: 0xA2DC, offset: 0x7A225, size: 0x8, addend: 0x0, symName: __ZNSt3__14pairIc7AVLTreeEC2B7v160006I9MovieTypeRS1_LPv0EEEOT_OT0_, symObjAddr: 0x294C, symBinAddr: 0x100016168, symSize: 0x34 }
  - { offsetInCU: 0xA33A, offset: 0x7A283, size: 0x8, addend: 0x0, symName: __ZNSt3__14pairIc7AVLTreeED2Ev, symObjAddr: 0x2980, symBinAddr: 0x10001619C, symSize: 0x30 }
  - { offsetInCU: 0xA364, offset: 0x7A2AD, size: 0x8, addend: 0x0, symName: __ZNSt3__16vectorINS_4pairIc7AVLTreeEENS_9allocatorIS3_EEED2B7v160006Ev, symObjAddr: 0x29B0, symBinAddr: 0x1000161CC, symSize: 0x44 }
  - { offsetInCU: 0xA38D, offset: 0x7A2D6, size: 0x8, addend: 0x0, symName: __ZNSt3__16vectorINS_4pairIc7AVLTreeEENS_9allocatorIS3_EEE16__destroy_vectorC1ERS6_, symObjAddr: 0x29F4, symBinAddr: 0x100016210, symSize: 0x34 }
  - { offsetInCU: 0xA3C5, offset: 0x7A30E, size: 0x8, addend: 0x0, symName: __ZNSt3__16vectorINS_4pairIc7AVLTreeEENS_9allocatorIS3_EEE16__destroy_vectorclB7v160006Ev, symObjAddr: 0x2A28, symBinAddr: 0x100016244, symSize: 0x9C }
  - { offsetInCU: 0xA3E9, offset: 0x7A332, size: 0x8, addend: 0x0, symName: __ZNSt3__16vectorINS_4pairIc7AVLTreeEENS_9allocatorIS3_EEE16__destroy_vectorC2ERS6_, symObjAddr: 0x2AC4, symBinAddr: 0x1000162E0, symSize: 0x20 }
  - { offsetInCU: 0xA421, offset: 0x7A36A, size: 0x8, addend: 0x0, symName: __ZNSt3__16vectorINS_4pairIc7AVLTreeEENS_9allocatorIS3_EEE7__clearB7v160006Ev, symObjAddr: 0x2AF4, symBinAddr: 0x100016310, symSize: 0x28 }
  - { offsetInCU: 0xA445, offset: 0x7A38E, size: 0x8, addend: 0x0, symName: __ZNSt3__16vectorINS_4pairIc7AVLTreeEENS_9allocatorIS3_EEE22__base_destruct_at_endB7v160006EPS3_, symObjAddr: 0x2B1C, symBinAddr: 0x100016338, symSize: 0x8C }
  - { offsetInCU: 0x26, offset: 0x7A481, size: 0x8, addend: 0x0, symName: __ZN12MediaFactory14CreateDVDMovieERNSt3__112basic_stringIcNS0_11char_traitsIcEENS0_9allocatorIcEEEE, symObjAddr: 0x0, symBinAddr: 0x1000163C4, symSize: 0x24 }
  - { offsetInCU: 0x4A51, offset: 0x7EEAC, size: 0x8, addend: 0x0, symName: __ZN12MediaFactory14CreateDVDMovieERNSt3__112basic_stringIcNS0_11char_traitsIcEENS0_9allocatorIcEEEE, symObjAddr: 0x0, symBinAddr: 0x1000163C4, symSize: 0x24 }
  - { offsetInCU: 0x6AC7, offset: 0x85998, size: 0x8, addend: 0x0, symName: __ZN5MovieC2Ev, symObjAddr: 0x0, symBinAddr: 0x1000163E8, symSize: 0xBC }
  - { offsetInCU: 0x6AF6, offset: 0x859C7, size: 0x8, addend: 0x0, symName: __ZN5MovieD2Ev, symObjAddr: 0xF0, symBinAddr: 0x1000164A4, symSize: 0x54 }
  - { offsetInCU: 0x6B20, offset: 0x859F1, size: 0x8, addend: 0x0, symName: __ZN5MovieD1Ev, symObjAddr: 0x144, symBinAddr: 0x1000164F8, symSize: 0x14 }
  - { offsetInCU: 0x6B4A, offset: 0x85A1B, size: 0x8, addend: 0x0, symName: __ZN5MovieD0Ev, symObjAddr: 0x158, symBinAddr: 0x10001650C, symSize: 0xC }
  - { offsetInCU: 0x6B75, offset: 0x85A46, size: 0x8, addend: 0x0, symName: __ZNK5Movie12getMediaTypeEv, symObjAddr: 0x164, symBinAddr: 0x100016518, symSize: 0x14 }
  - { offsetInCU: 0x6B9B, offset: 0x85A6C, size: 0x8, addend: 0x0, symName: __ZNK5Movie12getMovieTypeEv, symObjAddr: 0x178, symBinAddr: 0x10001652C, symSize: 0x18 }
  - { offsetInCU: 0x6BC1, offset: 0x85A92, size: 0x8, addend: 0x0, symName: __ZNK5Movie8getTitleEv, symObjAddr: 0x190, symBinAddr: 0x100016544, symSize: 0x3C }
  - { offsetInCU: 0x6BE7, offset: 0x85AB8, size: 0x8, addend: 0x0, symName: __ZNK5Movie11getDirectorEv, symObjAddr: 0x1CC, symBinAddr: 0x100016580, symSize: 0x3C }
  - { offsetInCU: 0x6C0D, offset: 0x85ADE, size: 0x8, addend: 0x0, symName: __ZNK5Movie7getYearEv, symObjAddr: 0x208, symBinAddr: 0x1000165BC, symSize: 0x18 }
  - { offsetInCU: 0x6C33, offset: 0x85B04, size: 0x8, addend: 0x0, symName: __ZN5Movie7setDataERNSt3__118basic_stringstreamIcNS0_11char_traitsIcEENS0_9allocatorIcEEEE, symObjAddr: 0x220, symBinAddr: 0x1000165D4, symSize: 0x88 }
  - { offsetInCU: 0x6C67, offset: 0x85B38, size: 0x8, addend: 0x0, symName: __ZN5Movie11GetSetStockERNSt3__118basic_stringstreamIcNS0_11char_traitsIcEENS0_9allocatorIcEEEE, symObjAddr: 0x2A8, symBinAddr: 0x10001665C, symSize: 0xC4 }
  - { offsetInCU: 0x6CA9, offset: 0x85B7A, size: 0x8, addend: 0x0, symName: __ZN5Movie14GetSetDirectorERNSt3__118basic_stringstreamIcNS0_11char_traitsIcEENS0_9allocatorIcEEEE, symObjAddr: 0x36C, symBinAddr: 0x100016720, symSize: 0xE4 }
  - { offsetInCU: 0x6CEB, offset: 0x85BBC, size: 0x8, addend: 0x0, symName: __ZN5Movie11GetSetTitleERNSt3__118basic_stringstreamIcNS0_11char_traitsIcEENS0_9allocatorIcEEEE, symObjAddr: 0x450, symBinAddr: 0x100016804, symSize: 0xE4 }
  - { offsetInCU: 0x6D2D, offset: 0x85BFE, size: 0x8, addend: 0x0, symName: __ZN5Movie12setMovieTypeEc, symObjAddr: 0x534, symBinAddr: 0x1000168E8, symSize: 0x20 }
  - { offsetInCU: 0x6D61, offset: 0x85C32, size: 0x8, addend: 0x0, symName: __ZN5Movie8setTitleENSt3__112basic_stringIcNS0_11char_traitsIcEENS0_9allocatorIcEEEE, symObjAddr: 0x554, symBinAddr: 0x100016908, symSize: 0x30 }
  - { offsetInCU: 0x6D96, offset: 0x85C67, size: 0x8, addend: 0x0, symName: __ZN5Movie11setDirectorENSt3__112basic_stringIcNS0_11char_traitsIcEENS0_9allocatorIcEEEE, symObjAddr: 0x584, symBinAddr: 0x100016938, symSize: 0x30 }
  - { offsetInCU: 0x6DCB, offset: 0x85C9C, size: 0x8, addend: 0x0, symName: __ZN5Movie7setYearEi, symObjAddr: 0x5B4, symBinAddr: 0x100016968, symSize: 0x20 }
  - { offsetInCU: 0x6DFE, offset: 0x85CCF, size: 0x8, addend: 0x0, symName: __ZlsRNSt3__113basic_ostreamIcNS_11char_traitsIcEEEERK5Movie, symObjAddr: 0x5D4, symBinAddr: 0x100016988, symSize: 0x38 }
  - { offsetInCU: 0x6E39, offset: 0x85D0A, size: 0x8, addend: 0x0, symName: __ZN5Movie10GetSetYearERNSt3__118basic_stringstreamIcNS0_11char_traitsIcEENS0_9allocatorIcEEEE, symObjAddr: 0x84C, symBinAddr: 0x1000169C0, symSize: 0xA4 }
  - { offsetInCU: 0x6BAA, offset: 0x8C922, size: 0x8, addend: 0x0, symName: __ZN12MovieFactory11CreateMovieERNSt3__112basic_stringIcNS0_11char_traitsIcEENS0_9allocatorIcEEEE, symObjAddr: 0x0, symBinAddr: 0x100016A64, symSize: 0x1C0 }
  - { offsetInCU: 0x6BED, offset: 0x8C965, size: 0x8, addend: 0x0, symName: __ZN12MovieFactory12CreateComedyERNSt3__118basic_stringstreamIcNS0_11char_traitsIcEENS0_9allocatorIcEEEE, symObjAddr: 0x468, symBinAddr: 0x100016C24, symSize: 0xB0 }
  - { offsetInCU: 0x6C20, offset: 0x8C998, size: 0x8, addend: 0x0, symName: __ZN12MovieFactory11CreateDramaERNSt3__118basic_stringstreamIcNS0_11char_traitsIcEENS0_9allocatorIcEEEE, symObjAddr: 0x518, symBinAddr: 0x100016CD4, symSize: 0xB0 }
  - { offsetInCU: 0x6C53, offset: 0x8C9CB, size: 0x8, addend: 0x0, symName: __ZN12MovieFactory13CreateClassicERNSt3__118basic_stringstreamIcNS0_11char_traitsIcEENS0_9allocatorIcEEEE, symObjAddr: 0x5C8, symBinAddr: 0x100016D84, symSize: 0xB0 }
  - { offsetInCU: 0x14989, offset: 0xA13CD, size: 0x8, addend: 0x0, symName: __ZN12MovieManagerC2Ev, symObjAddr: 0x0, symBinAddr: 0x100016E34, symSize: 0x60 }
  - { offsetInCU: 0x149B3, offset: 0xA13F7, size: 0x8, addend: 0x0, symName: __ZN18CustomerCollectionD1Ev, symObjAddr: 0x60, symBinAddr: 0x100016E94, symSize: 0x2C }
  - { offsetInCU: 0x149DD, offset: 0xA1421, size: 0x8, addend: 0x0, symName: __ZN12MovieManagerC1Ev, symObjAddr: 0x8C, symBinAddr: 0x100016EC0, symSize: 0x2C }
  - { offsetInCU: 0x14A07, offset: 0xA144B, size: 0x8, addend: 0x0, symName: __ZN12MovieManagerD2Ev, symObjAddr: 0xB8, symBinAddr: 0x100016EEC, symSize: 0x38 }
  - { offsetInCU: 0x14A31, offset: 0xA1475, size: 0x8, addend: 0x0, symName: __ZN12MovieManagerD1Ev, symObjAddr: 0xF0, symBinAddr: 0x100016F24, symSize: 0x2C }
  - { offsetInCU: 0x14A5B, offset: 0xA149F, size: 0x8, addend: 0x0, symName: __ZN12MovieManager13ReadCustomersERNSt3__114basic_ifstreamIcNS0_11char_traitsIcEEEE, symObjAddr: 0x11C, symBinAddr: 0x100016F50, symSize: 0x128 }
  - { offsetInCU: 0x14A9D, offset: 0xA14E1, size: 0x8, addend: 0x0, symName: __ZNKSt3__19basic_iosIcNS_11char_traitsIcEEEntB7v160006Ev, symObjAddr: 0x244, symBinAddr: 0x100017078, symSize: 0x28 }
  - { offsetInCU: 0x14AC6, offset: 0xA150A, size: 0x8, addend: 0x0, symName: __ZNKSt3__19basic_iosIcNS_11char_traitsIcEEE3eofB7v160006Ev, symObjAddr: 0x36C, symBinAddr: 0x1000170A0, symSize: 0x28 }
  - { offsetInCU: 0x14AEA, offset: 0xA152E, size: 0x8, addend: 0x0, symName: __ZN12MovieManager10ReadMoviesERNSt3__114basic_ifstreamIcNS0_11char_traitsIcEEEE, symObjAddr: 0x5CC, symBinAddr: 0x1000170C8, symSize: 0x21C }
  - { offsetInCU: 0x14B6B, offset: 0xA15AF, size: 0x8, addend: 0x0, symName: __ZN12MovieManager16ReadTransactionsERNSt3__114basic_ifstreamIcNS0_11char_traitsIcEEEE, symObjAddr: 0x7E8, symBinAddr: 0x1000172E4, symSize: 0x188 }
  - { offsetInCU: 0x14BC9, offset: 0xA160D, size: 0x8, addend: 0x0, symName: __ZNK12MovieManager16DisplayCustomersEv, symObjAddr: 0x978, symBinAddr: 0x10001746C, symSize: 0x24 }
  - { offsetInCU: 0x14BEF, offset: 0xA1633, size: 0x8, addend: 0x0, symName: __ZNK12MovieManager12DisplayMediaEv, symObjAddr: 0x99C, symBinAddr: 0x100017490, symSize: 0x28 }
  - { offsetInCU: 0x14C15, offset: 0xA1659, size: 0x8, addend: 0x0, symName: __ZN18CustomerCollectionD2Ev, symObjAddr: 0x9C4, symBinAddr: 0x1000174B8, symSize: 0x2C }
  - { offsetInCU: 0x14C3F, offset: 0xA1683, size: 0x8, addend: 0x0, symName: __ZNKSt3__19basic_iosIcNS_11char_traitsIcEEE4failB7v160006Ev, symObjAddr: 0xBBC, symBinAddr: 0x1000174E4, symSize: 0x28 }
  - { offsetInCU: 0x14C63, offset: 0xA16A7, size: 0x8, addend: 0x0, symName: __ZNKSt3__18ios_base4failB7v160006Ev, symObjAddr: 0xBE4, symBinAddr: 0x10001750C, symSize: 0x28 }
  - { offsetInCU: 0x14CA8, offset: 0xA16EC, size: 0x8, addend: 0x0, symName: __ZNKSt3__18ios_base3eofB7v160006Ev, symObjAddr: 0x15D4, symBinAddr: 0x100017534, symSize: 0x24 }
  - { offsetInCU: 0xA0B8, offset: 0xAB93B, size: 0x8, addend: 0x0, symName: __ZN6ReturnC2Ev, symObjAddr: 0x0, symBinAddr: 0x100017558, symSize: 0x44 }
  - { offsetInCU: 0xA0E2, offset: 0xAB965, size: 0x8, addend: 0x0, symName: __ZN6ReturnC1Ev, symObjAddr: 0x44, symBinAddr: 0x10001759C, symSize: 0x2C }
  - { offsetInCU: 0xA10C, offset: 0xAB98F, size: 0x8, addend: 0x0, symName: __ZN6ReturnD2Ev, symObjAddr: 0x70, symBinAddr: 0x1000175C8, symSize: 0x2C }
  - { offsetInCU: 0xA136, offset: 0xAB9B9, size: 0x8, addend: 0x0, symName: __ZN6ReturnD1Ev, symObjAddr: 0x9C, symBinAddr: 0x1000175F4, symSize: 0x2C }
  - { offsetInCU: 0xA160, offset: 0xAB9E3, size: 0x8, addend: 0x0, symName: __ZN6ReturnD0Ev, symObjAddr: 0xC8, symBinAddr: 0x100017620, symSize: 0x30 }
  - { offsetInCU: 0xA18B, offset: 0xABA0E, size: 0x8, addend: 0x0, symName: __ZN6Return13ProcessReturnER15MediaCollectionR18CustomerCollection, symObjAddr: 0xF8, symBinAddr: 0x100017650, symSize: 0x5EC }
  - { offsetInCU: 0x7070, offset: 0xB2B33, size: 0x8, addend: 0x0, symName: __ZN11TransactionC2Ev, symObjAddr: 0x0, symBinAddr: 0x100017C3C, symSize: 0x88 }
  - { offsetInCU: 0x709A, offset: 0xB2B5D, size: 0x8, addend: 0x0, symName: __ZN11TransactionC1Ev, symObjAddr: 0xE0, symBinAddr: 0x100017CC4, symSize: 0x2C }
  - { offsetInCU: 0x70C4, offset: 0xB2B87, size: 0x8, addend: 0x0, symName: __ZN11TransactionC2ERKS_, symObjAddr: 0x10C, symBinAddr: 0x100017CF0, symSize: 0x9C }
  - { offsetInCU: 0x70FC, offset: 0xB2BBF, size: 0x8, addend: 0x0, symName: __ZN11TransactionC1ERKS_, symObjAddr: 0x1A8, symBinAddr: 0x100017D8C, symSize: 0x34 }
  - { offsetInCU: 0x7134, offset: 0xB2BF7, size: 0x8, addend: 0x0, symName: __ZN11TransactionD2Ev, symObjAddr: 0x1DC, symBinAddr: 0x100017DC0, symSize: 0x40 }
  - { offsetInCU: 0x715E, offset: 0xB2C21, size: 0x8, addend: 0x0, symName: __ZN11TransactionD1Ev, symObjAddr: 0x21C, symBinAddr: 0x100017E00, symSize: 0x2C }
  - { offsetInCU: 0x7188, offset: 0xB2C4B, size: 0x8, addend: 0x0, symName: __ZN11TransactionD0Ev, symObjAddr: 0x248, symBinAddr: 0x100017E2C, symSize: 0x30 }
  - { offsetInCU: 0x71B3, offset: 0xB2C76, size: 0x8, addend: 0x0, symName: __ZNK11Transaction13getCustomerIDEv, symObjAddr: 0x278, symBinAddr: 0x100017E5C, symSize: 0x18 }
  - { offsetInCU: 0x71D9, offset: 0xB2C9C, size: 0x8, addend: 0x0, symName: __ZNK11Transaction14getCommandTypeEv, symObjAddr: 0x290, symBinAddr: 0x100017E74, symSize: 0x18 }
  - { offsetInCU: 0x71FF, offset: 0xB2CC2, size: 0x8, addend: 0x0, symName: __ZN11Transaction7setDataERNSt3__118basic_stringstreamIcNS0_11char_traitsIcEENS0_9allocatorIcEEEE, symObjAddr: 0x2A8, symBinAddr: 0x100017E8C, symSize: 0x88 }
  - { offsetInCU: 0x724F, offset: 0xB2D12, size: 0x8, addend: 0x0, symName: __ZN11Transaction13setCustomerIDEi, symObjAddr: 0x330, symBinAddr: 0x100017F14, symSize: 0x20 }
  - { offsetInCU: 0x7283, offset: 0xB2D46, size: 0x8, addend: 0x0, symName: __ZN11Transaction14setCommandTypeEc, symObjAddr: 0x350, symBinAddr: 0x100017F34, symSize: 0x20 }
  - { offsetInCU: 0x72B7, offset: 0xB2D7A, size: 0x8, addend: 0x0, symName: __ZN11Transaction7ProcessER15MediaCollectionR18CustomerCollection, symObjAddr: 0x370, symBinAddr: 0x100017F54, symSize: 0x22C }
  - { offsetInCU: 0x715E, offset: 0xB9F31, size: 0x8, addend: 0x0, symName: __ZN18TransactionFactory17CreateTransactionENSt3__112basic_stringIcNS0_11char_traitsIcEENS0_9allocatorIcEEEE, symObjAddr: 0x0, symBinAddr: 0x1000181C4, symSize: 0x1CC }
  - { offsetInCU: 0x71BF, offset: 0xB9F92, size: 0x8, addend: 0x0, symName: __ZN18TransactionFactory15CreateInventoryERNSt3__118basic_stringstreamIcNS0_11char_traitsIcEENS0_9allocatorIcEEEE, symObjAddr: 0x4B8, symBinAddr: 0x1000183D4, symSize: 0x6C }
  - { offsetInCU: 0x71F2, offset: 0xB9FC5, size: 0x8, addend: 0x0, symName: __ZN18TransactionFactory13CreateHistoryERNSt3__118basic_stringstreamIcNS0_11char_traitsIcEENS0_9allocatorIcEEEE, symObjAddr: 0x524, symBinAddr: 0x100018440, symSize: 0xBC }
  - { offsetInCU: 0x7225, offset: 0xB9FF8, size: 0x8, addend: 0x0, symName: __ZN18TransactionFactory12CreateBorrowERNSt3__118basic_stringstreamIcNS0_11char_traitsIcEENS0_9allocatorIcEEEE, symObjAddr: 0x5E0, symBinAddr: 0x1000184FC, symSize: 0xBC }
  - { offsetInCU: 0x7258, offset: 0xBA02B, size: 0x8, addend: 0x0, symName: __ZN18TransactionFactory12CreateReturnERNSt3__118basic_stringstreamIcNS0_11char_traitsIcEENS0_9allocatorIcEEEE, symObjAddr: 0x69C, symBinAddr: 0x1000185B8, symSize: 0xBC }
  - { offsetInCU: 0xCF41, offset: 0xC6FC7, size: 0x8, addend: 0x0, symName: __Z7isdigiti, symObjAddr: 0x860, symBinAddr: 0x100018B84, symSize: 0x28 }
  - { offsetInCU: 0xED93, offset: 0xC8E19, size: 0x8, addend: 0x0, symName: __ZN8Validate15CheckfileAmountEi, symObjAddr: 0x0, symBinAddr: 0x100018674, symSize: 0x20 }
  - { offsetInCU: 0xEDB8, offset: 0xC8E3E, size: 0x8, addend: 0x0, symName: __ZN8Validate13DispurseFilesERNSt3__114basic_ifstreamIcNS0_11char_traitsIcEEEES5_S5_PPc, symObjAddr: 0x20, symBinAddr: 0x100018694, symSize: 0x1A0 }
  - { offsetInCU: 0xEE3F, offset: 0xC8EC5, size: 0x8, addend: 0x0, symName: __ZNSt3__114basic_ifstreamIcNS_11char_traitsIcEEEC1EPKcj, symObjAddr: 0x1C0, symBinAddr: 0x100018834, symSize: 0x16C }
  - { offsetInCU: 0xEE88, offset: 0xC8F0E, size: 0x8, addend: 0x0, symName: __ZN8Validate9CheckFileERNSt3__114basic_ifstreamIcNS0_11char_traitsIcEEEE, symObjAddr: 0x32C, symBinAddr: 0x1000189A0, symSize: 0x14C }
  - { offsetInCU: 0xEECA, offset: 0xC8F50, size: 0x8, addend: 0x0, symName: __ZNSt3__114basic_ifstreamIcNS_11char_traitsIcEEE5closeEv, symObjAddr: 0x478, symBinAddr: 0x100018AEC, symSize: 0x58 }
  - { offsetInCU: 0xEEF5, offset: 0xC8F7B, size: 0x8, addend: 0x0, symName: __ZNSt3__114basic_ifstreamIcNS_11char_traitsIcEEED1Ev, symObjAddr: 0x4D0, symBinAddr: 0x100018B44, symSize: 0x40 }
  - { offsetInCU: 0xEF26, offset: 0xC8FAC, size: 0x8, addend: 0x0, symName: __ZNSt3__112basic_stringIcNS_11char_traitsIcEENS_9allocatorIcEEEixB7v160006Em, symObjAddr: 0x888, symBinAddr: 0x100018BAC, symSize: 0x30 }
  - { offsetInCU: 0xEF59, offset: 0xC8FDF, size: 0x8, addend: 0x0, symName: __ZNSt3__114basic_ifstreamIcNS_11char_traitsIcEEED2Ev, symObjAddr: 0x8B8, symBinAddr: 0x100018BDC, symSize: 0x64 }
  - { offsetInCU: 0xEF91, offset: 0xC9017, size: 0x8, addend: 0x0, symName: __ZTv0_n24_NSt3__114basic_ifstreamIcNS_11char_traitsIcEEED1Ev, symObjAddr: 0x91C, symBinAddr: 0x100018C40, symSize: 0x28 }
  - { offsetInCU: 0xEFA8, offset: 0xC902E, size: 0x8, addend: 0x0, symName: __Z9__isctypeim, symObjAddr: 0xB10, symBinAddr: 0x100018C68, symSize: 0x80 }
  - { offsetInCU: 0xF5D8, offset: 0xD8673, size: 0x8, addend: 0x0, symName: _main, symObjAddr: 0x0, symBinAddr: 0x100018CE8, symSize: 0x1FC }
  - { offsetInCU: 0xF717, offset: 0xD87B2, size: 0x8, addend: 0x0, symName: __ZNSt3__114basic_ifstreamIcNS_11char_traitsIcEEEC1Ev, symObjAddr: 0x1FC, symBinAddr: 0x100018EE4, symSize: 0xE8 }
...
